ccopy_reg
_reconstructor
p0
(ccluster.method.hierarchical
HierarchicalClustering
p1
c__builtin__
object
p2
Ntp3
Rp4
(dp5
S'distance'
p6
NsS'_input'
p7
(lp8
VAHMEDBEST
p9
aVALAINDELON
p10
aVALBERTOOLMEDO
p11
aVALEJANDROJODOROWSKY
p12
aVALEXDLINZ
p13
aVALEXMACDOUGALL
p14
aVALFRANKEN
p15
aVAMANDADECADENET
p16
aVAMBERBENSON
p17
aVANNAFARIS
p18
aVANNAKARINA
p19
aVANNAPAQUIN
p20
aVANNHARDING
p21
aVANNIEPOTTS
p22
aVANNMARGRET
p23
aVANNMARIEMACDONALD
p24
aVANTHONYFRANCIOSA
p25
aVANTONWALBROOK
p26
aVARNOLDPALMER
p27
aVARTCARNEY
p28
aVARTEJOHNSON
p29
aVASHOKKUMAR
p30
aVBARRYBOSTWICK
p31
aVBEBENEUWIRTH
p32
aVBENNYANDERSSON
p33
aVBENSTEIN
p34
aVBERRYBERENSON
p35
aVBETTYGRABLE
p36
aVBILLCLINTON
p37
aVBILLMACY
p38
aVBILLPAXTON
p39
aVBLALUGOSI
p40
aVBOBHOSKINS
p41
aVBRATPACK
p42
aVBRENTSPINER
p43
aVBRETHART
p44
aVBRIANAUSTINGREEN
p45
aVBRIANBELL
p46
aVBRIANSETZER
p47
aVBRIGITTEHELM
p48
aVBRODERICKCRAWFORD
p49
aVBRUCEWILLIS
p50
aVCABCALLOWAY
p51
aVCARLOSBERNARD
p52
aVCARLYASTRZEMSKI
p53
aVCAROLCHANNING
p54
aVCATHERINEZETAJONES
p55
aVCHARLESBARKLEY
p56
aVCHARLESBRONSON
p57
aVCHARLESEAMES
p58
aVCHARLESMURRAY
p59
aVCHARLIESHEEN
p60
aVCHARLOTTEMITCHELL
p61
aVCHAYANNE
p62
aVCHRISELLIOTT
p63
aVCHRISTINAAPPLEGATE
p64
aVCHRISTOPHERGUEST
p65
aVCHRISTOPHERISHERWOOD
p66
aVCHRISTOPHERREEVE
p67
aVCHUCKNORRIS
p68
aVCHUCKYEAGER
p69
aVCLARABOW
p70
aVCLOTILDECOURAUPRINCESSOFVENICEANDPIEDMONT
p71
aVCOLINFARRELL
p72
aVCUBAGOODINGJR
p73
aVCYRILCUSACK
p74
aVDANNIIMINOGUE
p75
aVDASHMIHOK
p76
aVDAVIDCRONENBERG
p77
aVDAVIDSEAMAN
p78
aVDEFORESTKELLEY
p79
aVDELTAGOODREM
p80
aVDEMIMOORE
p81
aVDENHOLMELLIOTT
p82
aVDEREKNIMMO
p83
aVDEVONSAWA
p84
aVDIANELADD
p85
aVDICKPOWELL
p86
aVDICKTRACY
p87
aVDINAJEWEL
p88
aVDIRKBOGARDE
p89
aVDOMINICMONAGHAN
p90
aVDONHO
p91
aVDONNOVELLO
p92
aVDOROTHYLAMOUR
p93
aVDOUGLASFAIRBANKS
p94
aVDREWBARRYMORE
p95
aVEDDIEBRACKEN
p96
aVEDDIEIZZARD
p97
aVEDWOODJR
p98
aVELEANORPARKER
p99
aVELLENBURSTYN
p100
aVELLIOTTSMITH
p101
aVELVISPRESLEY
p102
aVEMMANUELLESEIGNER
p103
aVEMMYLOUHARRIS
p104
aVERICBANA
p105
aVERICSRAYMOND
p106
aVERNIEWISE
p107
aVERNSTZNDEL
p108
aVERROLFLYNN
p109
aVEVE
p110
aVFRANCISCOFRANCO
p111
aVFRANCISFORDCOPPOLA
p112
aVFRANDRESCHER
p113
aVFRANKGEHRY
p114
aVFREDASTAIRE
p115
aVFRITZLEIBER
p116
aVGAILRUSSELL
p117
aVGATESMCFADDEN
p118
aVGAVINROSSDALE
p119
aVGEORGEGOBEL
p120
aVGINAGERSHON
p121
aVGINALOLLOBRIGIDA
p122
aVGINGERBAKER
p123
aVGINUWINE
p124
aVGLORIALEONARD
p125
aVGORDONJUMP
p126
aVGRANDWIZARDTHEODORE
p127
aVGRAYDAVIS
p128
aVGREGORYHINES
p129
aVGRIFFRHYSJONES
p130
aVGUYPEARCE
p131
aVGYPSYROSELEE
p132
aVHALLEBERRY
p133
aVHANKHIGHTOWER
p134
aVHAROLDLLOYD
p135
aVHAROLDPINTER
p136
aVHARRISONFORD
p137
aVHEATHERGRAHAM
p138
aVHILARYSWANK
p139
aVHILDEGARDKNEF
p140
aVHOLLYVALANCE
p141
aVHOWARDSTERN
p142
aVHUGHDOWNS
p143
aVHUGHGRANT
p144
aVHUGOCHVEZ
p145
aVIMPEI
p146
aVINGRIDBERGMAN
p147
aVISABELLEHUPPERT
p148
aVIVORNOVELLO
p149
aVJACQUELINEBISSET
p150
aVJACQUESTATI
p151
aVJAMESBASKETT
p152
aVJAMESCOBURN
p153
aVJANEANEGAROFALO
p154
aVJANEKENNEDY
p155
aVJANETSUZMAN
p156
aVJEFFGORDON
p157
aVJERRYRUBIN
p158
aVJESSEVENTURA
p159
aVJILLSTJOHN
p160
aVJIMCARREY
p161
aVJIMMYODEA
p162
aVJIMMYWALKER
p163
aVJOANCUSACK
p164
aVJOHNASTIN
p165
aVJOHNDOLMAYAN
p166
aVJOHNFRUSCIANTE
p167
aVJOHNHAGELIN
p168
aVJOHNLESLIE
p169
aVJOHNMALKOVICH
p170
aVJOHNNYWEISSMULLER
p171
aVJOHNRITTER
p172
aVJOHNSEBASTIAN
p173
aVJOHNSESSIONS
p174
aVJOHNSTAMOS
p175
aVJOSEPHFIENNES
p176
aVJOSFERRER
p177
aVJULIAROBERTS
p178
aVJULIEWALTERS
p179
aVJUSTINTIMBERLAKE
p180
aVKAREEMABDULJABBAR
p181
aVKEIRDULLEA
p182
aVKEISHACASTLEHUGHES
p183
aVKEVINSPACEY
p184
aVKIMCATTRALL
p185
aVKIMSTANLEY
p186
aVKOBEBRYANT
p187
aVKONICHIKAWA
p188
aVLADYBUNNY
p189
aVLANGSTONHUGHES
p190
aVLARAINENEWMAN
p191
aVLAURIEANDERSON
p192
aVLAURIEMETCALF
p193
aVLAURYNHILL
p194
aVLEEANNWOMACK
p195
aVLEELEESOBIESKI
p196
aVLEEMARVIN
p197
aVLEEREMICK
p198
aVLENNYCLARKE
p199
aVLESLIECHEUNG
p200
aVLESLIENIELSEN
p201
aVLFRANKBAUM
p202
aVLILYTOMLIN
p203
aVLINDAHAMILTON
p204
aVLINDALOVELACE
p205
aVLOTTELENYA
p206
aVLOUCOSTELLO
p207
aVLOUISEDRESSER
p208
aVMALLIKASARABHAI
p209
aVMARAELENAVELASCO
p210
aVMARIACONCHITAALONSO
p211
aVMARIAHCAREY
p212
aVMARILYNMONROE
p213
aVMARLEEMATLIN
p214
aVMARSHAMASON
p215
aVMATTDAMON
p216
aVMATTHEWCARTER
p217
aVMELBROOKS
p218
aVMELISSAJOANHART
p219
aVMICHAELWILLIAMS
p220
aVMICHELLEGRAND
p221
aVMICHELLERODRIGUEZ
p222
aVMICHELLETRACHTENBERG
p223
aVMICKEYHART
p224
aVMICKEYMANTLE
p225
aVMICKYDOLENZ
p226
aVMIKEYWELSH
p227
aVMIRAFURLAN
p228
aVMOLLYRINGWALD
p229
aVNANCYKELLY
p230
aVNANCYSINATRA
p231
aVNATEDOGG
p232
aVNEILINNES
p233
aVNEILYOUNG
p234
aVNICKCANNON
p235
aVNICOLEKIDMAN
p236
aVOLIVERSTONE
p237
aVOPRAHWINFREY
p238
aVOSVALDOARDILES
p239
aVOTTOFRANK
p240
aVPAMELASTEPHENSON
p241
aVPATTISMITH
p242
aVPAULAABDUL
p243
aVPAULBETTANY
p244
aVPAULSCOFIELD
p245
aVPAULWINFIELD
p246
aVPETERFONDA
p247
aVPETERJACKSON
p248
aVPETERLORRE
p249
aVPETESEEGER
p250
aVPHILCOLLINS
p251
aVPOPEBENEDICTXVI
p252
aVPORTIADEROSSI
p253
aVRACHELTRUE
p254
aVRALPHBATES
p255
aVRAYMILLAND
p256
aVREBECCAROMIJN
p257
aVREDSKELTON
p258
aVRENERUSSO
p259
aVRICHARDATTENBOROUGH
p260
aVRICHARDDREYFUSS
p261
aVRICHARDPERLE
p262
aVROBERTDUVALL
p263
aVROBERTREDFORD
p264
aVROGERCORMAN
p265
aVROSAURAREVUELTAS
p266
aVROSEMCGOWAN
p267
aVRUPERTGRINT
p268
aVSAMDEGRASSE
p269
aVSARANYA
p270
aVSCATMANCROTHERS
p271
aVSCOTTBAIO
p272
aVSEANCONNERY
p273
aVSERGEIBODROVJR
p274
aVSHAQUILLEONEAL
p275
aVSHARONOSBOURNE
p276
aVSHAVOODADJIAN
p277
aVSIDJAMES
p278
aVSINCLAIRLEWIS
p279
aVSOLEILMOONFRYE
p280
aVSTANLEE
p281
aVSTEPHENBALDWIN
p282
aVSTEPHENFRY
p283
aVSTEVEANTIN
p284
aVSTEVECABALLERO
p285
aVSUSANSARANDON
p286
aVSYLVESTERSTALLONE
p287
aVTERAPATRICK
p288
aVTERRYSCOTT
p289
aVTEXRITTER
p290
aVTHURSTONMOORE
p291
aVTITOORTIZ
p292
aVTOMHULCE
p293
aVTOMMYMUIZ
p294
aVTOMSELLECK
p295
aVTUPACSHAKUR
p296
aVVALENTINOROSSI
p297
aVVALERIESOLANAS
p298
aVVANESSALWILLIAMS
p299
aVVINCEMCMAHON
p300
aVVITTORIODESICA
p301
aVWAYLONJENNINGS
p302
aVWAYNEROGERS
p303
aVWHOOPIGOLDBERG
p304
aVWILLIAMGAINES
p305
aVYURI
p306
aVZBIGNIEWBRZEZINSKI
p307
aVZENAGREY
p308
asS'num_processes'
p309
I1
sS'_HierarchicalClustering__cluster_created'
p310
I01
sS'_data'
p311
(lp312
g0
(ccluster.cluster
Cluster
p313
g2
Ntp314
Rp315
(dp316
S'_Cluster__items'
p317
(lp318
g71
ag0
(g313
g2
Ntp319
Rp320
(dp321
g317
(lp322
g0
(g313
g2
Ntp323
Rp324
(dp325
g317
(lp326
g146
ag306
asS'_Cluster__level'
p327
F0.9166666666666666
sbag0
(g313
g2
Ntp328
Rp329
(dp330
g317
(lp331
g301
ag0
(g313
g2
Ntp332
Rp333
(dp334
g317
(lp335
g274
ag0
(g313
g2
Ntp336
Rp337
(dp338
g317
(lp339
g118
ag0
(g313
g2
Ntp340
Rp341
(dp342
g317
(lp343
g40
ag0
(g313
g2
Ntp344
Rp345
(dp346
g317
(lp347
g11
ag0
(g313
g2
Ntp348
Rp349
(dp350
g317
(lp351
g159
ag0
(g313
g2
Ntp352
Rp353
(dp354
g317
(lp355
g94
ag0
(g313
g2
Ntp356
Rp357
(dp358
g317
(lp359
g75
ag0
(g313
g2
Ntp360
Rp361
(dp362
g317
(lp363
g0
(g313
g2
Ntp364
Rp365
(dp366
g317
(lp367
g70
ag199
asg327
F0.9047619047619048
sbag0
(g313
g2
Ntp368
Rp369
(dp370
g317
(lp371
g0
(g313
g2
Ntp372
Rp373
(dp374
g317
(lp375
g30
ag76
asg327
F0.9047619047619048
sbag0
(g313
g2
Ntp376
Rp377
(dp378
g317
(lp379
g0
(g313
g2
Ntp380
Rp381
(dp382
g317
(lp383
g181
ag0
(g313
g2
Ntp384
Rp385
(dp386
g317
(lp387
g0
(g313
g2
Ntp388
Rp389
(dp390
g317
(lp391
g245
ag246
asg327
F0.5263157894736843
sbag0
(g313
g2
Ntp392
Rp393
(dp394
g317
(lp395
g243
ag244
asg327
F0.8095238095238095
sbasg327
F0.8181818181818181
sbasg327
F0.8928571428571429
sbag0
(g313
g2
Ntp396
Rp397
(dp398
g317
(lp399
g0
(g313
g2
Ntp400
Rp401
(dp402
g317
(lp403
g148
ag268
asg327
F0.8888888888888888
sbag0
(g313
g2
Ntp404
Rp405
(dp406
g317
(lp407
g296
ag0
(g313
g2
Ntp408
Rp409
(dp410
g317
(lp411
g141
ag0
(g313
g2
Ntp412
Rp413
(dp414
g317
(lp415
g120
ag0
(g313
g2
Ntp416
Rp417
(dp418
g317
(lp419
g89
ag0
(g313
g2
Ntp420
Rp421
(dp422
g317
(lp423
g209
ag0
(g313
g2
Ntp424
Rp425
(dp426
g317
(lp427
g138
ag0
(g313
g2
Ntp428
Rp429
(dp430
g317
(lp431
g0
(g313
g2
Ntp432
Rp433
(dp434
g317
(lp435
g0
(g313
g2
Ntp436
Rp437
(dp438
g317
(lp439
g41
ag251
asg327
F0.8636363636363636
sbag0
(g313
g2
Ntp440
Rp441
(dp442
g317
(lp443
g182
ag0
(g313
g2
Ntp444
Rp445
(dp446
g317
(lp447
g0
(g313
g2
Ntp448
Rp449
(dp450
g317
(lp451
g183
ag190
asg327
F0.8
sbag0
(g313
g2
Ntp452
Rp453
(dp454
g317
(lp455
g187
ag0
(g313
g2
Ntp456
Rp457
(dp458
g317
(lp459
g145
ag0
(g313
g2
Ntp460
Rp461
(dp462
g317
(lp463
g143
ag144
asg327
F0.7777777777777778
sbasg327
F0.8421052631578947
sbasg327
F0.85
sbasg327
F0.875
sbasg327
F0.896551724137931
sbasg327
F0.9047619047619048
sbag0
(g313
g2
Ntp464
Rp465
(dp466
g317
(lp467
g0
(g313
g2
Ntp468
Rp469
(dp470
g317
(lp471
g80
ag0
(g313
g2
Ntp472
Rp473
(dp474
g317
(lp475
g73
ag98
asg327
F0.8636363636363636
sbasg327
F0.8846153846153846
sbag0
(g313
g2
Ntp476
Rp477
(dp478
g317
(lp479
g259
ag0
(g313
g2
Ntp480
Rp481
(dp482
g317
(lp483
g228
ag0
(g313
g2
Ntp484
Rp485
(dp486
g317
(lp487
g189
ag0
(g313
g2
Ntp488
Rp489
(dp490
g317
(lp491
g142
ag0
(g313
g2
Ntp492
Rp493
(dp494
g317
(lp495
g36
ag0
(g313
g2
Ntp496
Rp497
(dp498
g317
(lp499
g229
ag0
(g313
g2
Ntp500
Rp501
(dp502
g317
(lp503
g0
(g313
g2
Ntp504
Rp505
(dp506
g317
(lp507
g84
ag188
asg327
F0.8571428571428572
sbag0
(g313
g2
Ntp508
Rp509
(dp510
g317
(lp511
g269
ag0
(g313
g2
Ntp512
Rp513
(dp514
g317
(lp515
g255
ag0
(g313
g2
Ntp516
Rp517
(dp518
g317
(lp519
g115
ag0
(g313
g2
Ntp520
Rp521
(dp522
g317
(lp523
g109
ag0
(g313
g2
Ntp524
Rp525
(dp526
g317
(lp527
g93
ag0
(g313
g2
Ntp528
Rp529
(dp530
g317
(lp531
g85
ag0
(g313
g2
Ntp532
Rp533
(dp534
g317
(lp535
g127
ag0
(g313
g2
Ntp536
Rp537
(dp538
g317
(lp539
g12
ag0
(g313
g2
Ntp540
Rp541
(dp542
g317
(lp543
g131
ag0
(g313
g2
Ntp544
Rp545
(dp546
g317
(lp547
g0
(g313
g2
Ntp548
Rp549
(dp550
g317
(lp551
g298
ag0
(g313
g2
Ntp552
Rp553
(dp554
g317
(lp555
g253
ag297
asg327
F0.8076923076923077
sbasg327
F0.8571428571428572
sbag0
(g313
g2
Ntp556
Rp557
(dp558
g317
(lp559
g0
(g313
g2
Ntp560
Rp561
(dp562
g317
(lp563
g150
ag151
asg327
F0.76
sbag0
(g313
g2
Ntp564
Rp565
(dp566
g317
(lp567
g276
ag0
(g313
g2
Ntp568
Rp569
(dp570
g317
(lp571
g275
ag0
(g313
g2
Ntp572
Rp573
(dp574
g317
(lp575
g266
ag0
(g313
g2
Ntp576
Rp577
(dp578
g317
(lp579
g252
ag0
(g313
g2
Ntp580
Rp581
(dp582
g317
(lp583
g103
ag0
(g313
g2
Ntp584
Rp585
(dp586
g317
(lp587
g277
ag0
(g313
g2
Ntp588
Rp589
(dp590
g317
(lp591
g239
ag0
(g313
g2
Ntp592
Rp593
(dp594
g317
(lp595
g90
ag0
(g313
g2
Ntp596
Rp597
(dp598
g317
(lp599
g210
ag0
(g313
g2
Ntp600
Rp601
(dp602
g317
(lp603
g180
ag0
(g313
g2
Ntp604
Rp605
(dp606
g317
(lp607
g119
ag0
(g313
g2
Ntp608
Rp609
(dp610
g317
(lp611
g16
ag0
(g313
g2
Ntp612
Rp613
(dp614
g317
(lp615
g9
ag0
(g313
g2
Ntp616
Rp617
(dp618
g317
(lp619
g83
ag0
(g313
g2
Ntp620
Rp621
(dp622
g317
(lp623
g0
(g313
g2
Ntp624
Rp625
(dp626
g317
(lp627
g307
ag0
(g313
g2
Ntp628
Rp629
(dp630
g317
(lp631
g53
ag0
(g313
g2
Ntp632
Rp633
(dp634
g317
(lp635
g52
ag125
asg327
F0.8461538461538461
sbasg327
F0.8571428571428572
sbasg327
F0.8787878787878788
sbag0
(g313
g2
Ntp636
Rp637
(dp638
g317
(lp639
g0
(g313
g2
Ntp640
Rp641
(dp642
g317
(lp643
g232
ag0
(g313
g2
Ntp644
Rp645
(dp646
g317
(lp647
g230
ag231
asg327
F0.7619047619047619
sbasg327
F0.8571428571428572
sbag0
(g313
g2
Ntp648
Rp649
(dp650
g317
(lp651
g0
(g313
g2
Ntp652
Rp653
(dp654
g317
(lp655
g26
ag218
asg327
F0.8181818181818181
sbag0
(g313
g2
Ntp656
Rp657
(dp658
g317
(lp659
g0
(g313
g2
Ntp660
Rp661
(dp662
g317
(lp663
g260
ag0
(g313
g2
Ntp664
Rp665
(dp666
g317
(lp667
g261
ag262
asg327
F0.7083333333333333
sbasg327
F0.75
sbag0
(g313
g2
Ntp668
Rp669
(dp670
g317
(lp671
g280
ag0
(g313
g2
Ntp672
Rp673
(dp674
g317
(lp675
g191
ag0
(g313
g2
Ntp676
Rp677
(dp678
g317
(lp679
g147
ag0
(g313
g2
Ntp680
Rp681
(dp682
g317
(lp683
g140
ag0
(g313
g2
Ntp684
Rp685
(dp686
g317
(lp687
g100
ag0
(g313
g2
Ntp688
Rp689
(dp690
g317
(lp691
g99
ag0
(g313
g2
Ntp692
Rp693
(dp694
g317
(lp695
g51
ag0
(g313
g2
Ntp696
Rp697
(dp698
g317
(lp699
g271
ag0
(g313
g2
Ntp700
Rp701
(dp702
g317
(lp703
g0
(g313
g2
Ntp704
Rp705
(dp706
g317
(lp707
g0
(g313
g2
Ntp708
Rp709
(dp710
g317
(lp711
g0
(g313
g2
Ntp712
Rp713
(dp714
g317
(lp715
g237
ag287
asg327
F0.8148148148148149
sbag0
(g313
g2
Ntp716
Rp717
(dp718
g317
(lp719
g95
ag0
(g313
g2
Ntp720
Rp721
(dp722
g317
(lp723
g81
ag291
asg327
F0.7619047619047619
sbasg327
F0.8181818181818181
sbasg327
F0.8333333333333334
sbag0
(g313
g2
Ntp724
Rp725
(dp726
g317
(lp727
g0
(g313
g2
Ntp728
Rp729
(dp730
g317
(lp731
g79
ag102
asg327
F0.8461538461538461
sbag0
(g313
g2
Ntp732
Rp733
(dp734
g317
(lp735
g185
ag0
(g313
g2
Ntp736
Rp737
(dp738
g317
(lp739
g184
ag0
(g313
g2
Ntp740
Rp741
(dp742
g317
(lp743
g132
ag0
(g313
g2
Ntp744
Rp745
(dp746
g317
(lp747
g186
ag281
asg327
F0.7647058823529411
sbasg327
F0.85
sbasg327
F0.8636363636363636
sbasg327
F0.8636363636363636
sbasg327
F0.8695652173913043
sbasg327
F0.875
sbag0
(g313
g2
Ntp748
Rp749
(dp750
g317
(lp751
g0
(g313
g2
Ntp752
Rp753
(dp754
g317
(lp755
g0
(g313
g2
Ntp756
Rp757
(dp758
g317
(lp759
g207
ag0
(g313
g2
Ntp760
Rp761
(dp762
g317
(lp763
g91
ag0
(g313
g2
Ntp764
Rp765
(dp766
g317
(lp767
g92
ag149
asg327
F0.6111111111111112
sbasg327
F0.7333333333333334
sbasg327
F0.8095238095238095
sbag0
(g313
g2
Ntp768
Rp769
(dp770
g317
(lp771
g206
ag0
(g313
g2
Ntp772
Rp773
(dp774
g317
(lp775
g270
ag286
asg327
F0.8
sbasg327
F0.8333333333333334
sbasg327
F0.8636363636363636
sbag0
(g313
g2
Ntp776
Rp777
(dp778
g317
(lp779
g0
(g313
g2
Ntp780
Rp781
(dp782
g317
(lp783
g256
ag0
(g313
g2
Ntp784
Rp785
(dp786
g317
(lp787
g105
ag106
asg327
F0.8
sbasg327
F0.8181818181818181
sbag0
(g313
g2
Ntp788
Rp789
(dp790
g317
(lp791
g0
(g313
g2
Ntp792
Rp793
(dp794
g317
(lp795
g235
ag236
asg327
F0.8181818181818181
sbag0
(g313
g2
Ntp796
Rp797
(dp798
g317
(lp799
g300
ag0
(g313
g2
Ntp800
Rp801
(dp802
g317
(lp803
g257
ag0
(g313
g2
Ntp804
Rp805
(dp806
g317
(lp807
g196
ag0
(g313
g2
Ntp808
Rp809
(dp810
g317
(lp811
g133
ag0
(g313
g2
Ntp812
Rp813
(dp814
g317
(lp815
g0
(g313
g2
Ntp816
Rp817
(dp818
g317
(lp819
g13
ag14
asg327
F0.8260869565217391
sbag0
(g313
g2
Ntp820
Rp821
(dp822
g317
(lp823
g0
(g313
g2
Ntp824
Rp825
(dp826
g317
(lp827
g0
(g313
g2
Ntp828
Rp829
(dp830
g317
(lp831
g265
ag267
asg327
F0.8181818181818181
sbag0
(g313
g2
Ntp832
Rp833
(dp834
g317
(lp835
g302
ag303
asg327
F0.84
sbasg327
F0.8695652173913043
sbag0
(g313
g2
Ntp836
Rp837
(dp838
g317
(lp839
g0
(g313
g2
Ntp840
Rp841
(dp842
g317
(lp843
g154
ag0
(g313
g2
Ntp844
Rp845
(dp846
g317
(lp847
g155
ag156
asg327
F0.8181818181818181
sbasg327
F0.8461538461538461
sbag0
(g313
g2
Ntp848
Rp849
(dp850
g317
(lp851
g254
ag0
(g313
g2
Ntp852
Rp853
(dp854
g317
(lp855
g0
(g313
g2
Ntp856
Rp857
(dp858
g317
(lp859
g49
ag0
(g313
g2
Ntp860
Rp861
(dp862
g317
(lp863
g0
(g313
g2
Ntp864
Rp865
(dp866
g317
(lp867
g0
(g313
g2
Ntp868
Rp869
(dp870
g317
(lp871
g0
(g313
g2
Ntp872
Rp873
(dp874
g317
(lp875
g263
ag264
asg327
F0.7391304347826086
sbag0
(g313
g2
Ntp876
Rp877
(dp878
g317
(lp879
g178
ag179
asg327
F0.782608695652174
sbasg327
F0.8333333333333334
sbag0
(g313
g2
Ntp880
Rp881
(dp882
g317
(lp883
g0
(g313
g2
Ntp884
Rp885
(dp886
g317
(lp887
g104
ag0
(g313
g2
Ntp888
Rp889
(dp890
g317
(lp891
g68
ag69
asg327
F0.7619047619047619
sbasg327
F0.8333333333333334
sbag0
(g313
g2
Ntp892
Rp893
(dp894
g317
(lp895
g134
ag0
(g313
g2
Ntp896
Rp897
(dp898
g317
(lp899
g27
ag0
(g313
g2
Ntp900
Rp901
(dp902
g317
(lp903
g137
ag0
(g313
g2
Ntp904
Rp905
(dp906
g317
(lp907
g135
ag136
asg327
F0.7142857142857143
sbasg327
F0.8260869565217391
sbasg327
F0.8333333333333334
sbasg327
F0.84
sbasg327
F0.84
sbasg327
F0.84
sbag0
(g313
g2
Ntp908
Rp909
(dp910
g317
(lp911
g0
(g313
g2
Ntp912
Rp913
(dp914
g317
(lp915
g21
ag54
asg327
F0.8260869565217391
sbag0
(g313
g2
Ntp916
Rp917
(dp918
g317
(lp919
g0
(g313
g2
Ntp920
Rp921
(dp922
g317
(lp923
g23
ag24
asg327
F0.76
sbag0
(g313
g2
Ntp924
Rp925
(dp926
g317
(lp927
g22
ag0
(g313
g2
Ntp928
Rp929
(dp930
g317
(lp931
g20
ag0
(g313
g2
Ntp932
Rp933
(dp934
g317
(lp935
g18
ag19
asg327
F0.7222222222222222
sbasg327
F0.7894736842105263
sbasg327
F0.7894736842105263
sbasg327
F0.8461538461538461
sbasg327
F0.85
sbasg327
F0.8571428571428572
sbasg327
F0.8620689655172413
sbag0
(g313
g2
Ntp936
Rp937
(dp938
g317
(lp939
g0
(g313
g2
Ntp940
Rp941
(dp942
g317
(lp943
g122
ag0
(g313
g2
Ntp944
Rp945
(dp946
g317
(lp947
g124
ag0
(g313
g2
Ntp948
Rp949
(dp950
g317
(lp951
g121
ag123
asg327
F0.8181818181818181
sbasg327
F0.85
sbasg327
F0.8518518518518519
sbag0
(g313
g2
Ntp952
Rp953
(dp954
g317
(lp955
g0
(g313
g2
Ntp956
Rp957
(dp958
g317
(lp959
g295
ag0
(g313
g2
Ntp960
Rp961
(dp962
g317
(lp963
g292
ag0
(g313
g2
Ntp964
Rp965
(dp966
g317
(lp967
g293
ag294
asg327
F0.8333333333333334
sbasg327
F0.8421052631578947
sbasg327
F0.8421052631578947
sbag0
(g313
g2
Ntp968
Rp969
(dp970
g317
(lp971
g0
(g313
g2
Ntp972
Rp973
(dp974
g317
(lp975
g176
ag0
(g313
g2
Ntp976
Rp977
(dp978
g317
(lp979
g233
ag234
asg327
F0.7777777777777778
sbasg327
F0.8181818181818181
sbag0
(g313
g2
Ntp980
Rp981
(dp982
g317
(lp983
g0
(g313
g2
Ntp984
Rp985
(dp986
g317
(lp987
g96
ag97
asg327
F0.7727272727272727
sbag0
(g313
g2
Ntp988
Rp989
(dp990
g317
(lp991
g279
ag0
(g313
g2
Ntp992
Rp993
(dp994
g317
(lp995
g273
ag0
(g313
g2
Ntp996
Rp997
(dp998
g317
(lp999
g128
ag0
(g313
g2
Ntp1000
Rp1001
(dp1002
g317
(lp1003
g48
ag0
(g313
g2
Ntp1004
Rp1005
(dp1006
g317
(lp1007
g31
ag0
(g313
g2
Ntp1008
Rp1009
(dp1010
g317
(lp1011
g0
(g313
g2
Ntp1012
Rp1013
(dp1014
g317
(lp1015
g0
(g313
g2
Ntp1016
Rp1017
(dp1018
g317
(lp1019
g107
ag108
asg327
F0.85
sbag0
(g313
g2
Ntp1020
Rp1021
(dp1022
g317
(lp1023
g110
ag0
(g313
g2
Ntp1024
Rp1025
(dp1026
g317
(lp1027
g0
(g313
g2
Ntp1028
Rp1029
(dp1030
g317
(lp1031
g101
ag242
asg327
F0.7619047619047619
sbag0
(g313
g2
Ntp1032
Rp1033
(dp1034
g317
(lp1035
g64
ag0
(g313
g2
Ntp1036
Rp1037
(dp1038
g317
(lp1039
g0
(g313
g2
Ntp1040
Rp1041
(dp1042
g317
(lp1043
g66
ag0
(g313
g2
Ntp1044
Rp1045
(dp1046
g317
(lp1047
g65
ag67
asg327
F0.56
sbasg327
F0.6206896551724138
sbag0
(g313
g2
Ntp1048
Rp1049
(dp1050
g317
(lp1051
g63
ag82
asg327
F0.6956521739130435
sbasg327
F0.7692307692307692
sbasg327
F0.7741935483870968
sbasg327
F0.782608695652174
sbasg327
F0.85
sbasg327
F0.8571428571428572
sbag0
(g313
g2
Ntp1052
Rp1053
(dp1054
g317
(lp1055
g304
ag0
(g313
g2
Ntp1056
Rp1057
(dp1058
g317
(lp1059
g72
ag0
(g313
g2
Ntp1060
Rp1061
(dp1062
g317
(lp1063
g0
(g313
g2
Ntp1064
Rp1065
(dp1066
g317
(lp1067
g0
(g313
g2
Ntp1068
Rp1069
(dp1070
g317
(lp1071
g238
ag0
(g313
g2
Ntp1072
Rp1073
(dp1074
g317
(lp1075
g0
(g313
g2
Ntp1076
Rp1077
(dp1078
g317
(lp1079
g162
ag163
asg327
F0.736842105263158
sbag0
(g313
g2
Ntp1080
Rp1081
(dp1082
g317
(lp1083
g28
ag0
(g313
g2
Ntp1084
Rp1085
(dp1086
g317
(lp1087
g308
ag0
(g313
g2
Ntp1088
Rp1089
(dp1090
g317
(lp1091
g213
ag0
(g313
g2
Ntp1092
Rp1093
(dp1094
g317
(lp1095
g211
ag0
(g313
g2
Ntp1096
Rp1097
(dp1098
g317
(lp1099
g161
ag212
asg327
F0.8
sbasg327
F0.8275862068965517
sbasg327
F0.8333333333333334
sbasg327
F0.8333333333333334
sbasg327
F0.8421052631578947
sbasg327
F0.8421052631578947
sbasg327
F0.8571428571428572
sbag0
(g313
g2
Ntp1100
Rp1101
(dp1102
g317
(lp1103
g0
(g313
g2
Ntp1104
Rp1105
(dp1106
g317
(lp1107
g139
ag0
(g313
g2
Ntp1108
Rp1109
(dp1110
g317
(lp1111
g0
(g313
g2
Ntp1112
Rp1113
(dp1114
g317
(lp1115
g25
ag0
(g313
g2
Ntp1116
Rp1117
(dp1118
g317
(lp1119
g0
(g313
g2
Ntp1120
Rp1121
(dp1122
g317
(lp1123
g111
ag112
asg327
F0.7666666666666666
sbag0
(g313
g2
Ntp1124
Rp1125
(dp1126
g317
(lp1127
g208
ag0
(g313
g2
Ntp1128
Rp1129
(dp1130
g317
(lp1131
g116
ag0
(g313
g2
Ntp1132
Rp1133
(dp1134
g317
(lp1135
g113
ag114
asg327
F0.8181818181818181
sbasg327
F0.8260869565217391
sbasg327
F0.84
sbasg327
F0.84
sbasg327
F0.8484848484848485
sbag0
(g313
g2
Ntp1136
Rp1137
(dp1138
g317
(lp1139
g10
ag0
(g313
g2
Ntp1140
Rp1141
(dp1142
g317
(lp1143
g240
ag0
(g313
g2
Ntp1144
Rp1145
(dp1146
g317
(lp1147
g15
ag202
asg327
F0.7894736842105263
sbasg327
F0.8421052631578947
sbasg327
F0.85
sbasg327
F0.85
sbasg327
F0.8571428571428572
sbag0
(g313
g2
Ntp1148
Rp1149
(dp1150
g317
(lp1151
g0
(g313
g2
Ntp1152
Rp1153
(dp1154
g317
(lp1155
g250
ag0
(g313
g2
Ntp1156
Rp1157
(dp1158
g317
(lp1159
g248
ag0
(g313
g2
Ntp1160
Rp1161
(dp1162
g317
(lp1163
g247
ag249
asg327
F0.736842105263158
sbasg327
F0.7619047619047619
sbasg327
F0.8
sbag0
(g313
g2
Ntp1164
Rp1165
(dp1166
g317
(lp1167
g0
(g313
g2
Ntp1168
Rp1169
(dp1170
g317
(lp1171
g126
ag157
asg327
F0.8
sbag0
(g313
g2
Ntp1172
Rp1173
(dp1174
g317
(lp1175
g288
ag0
(g313
g2
Ntp1176
Rp1177
(dp1178
g317
(lp1179
g62
ag0
(g313
g2
Ntp1180
Rp1181
(dp1182
g317
(lp1183
g32
ag0
(g313
g2
Ntp1184
Rp1185
(dp1186
g317
(lp1187
g0
(g313
g2
Ntp1188
Rp1189
(dp1190
g317
(lp1191
g272
ag289
asg327
F0.85
sbag0
(g313
g2
Ntp1192
Rp1193
(dp1194
g317
(lp1195
g0
(g313
g2
Ntp1196
Rp1197
(dp1198
g317
(lp1199
g152
ag153
asg327
F0.7727272727272727
sbag0
(g313
g2
Ntp1200
Rp1201
(dp1202
g317
(lp1203
g158
ag0
(g313
g2
Ntp1204
Rp1205
(dp1206
g317
(lp1207
g0
(g313
g2
Ntp1208
Rp1209
(dp1210
g317
(lp1211
g61
ag0
(g313
g2
Ntp1212
Rp1213
(dp1214
g317
(lp1215
g278
ag0
(g313
g2
Ntp1216
Rp1217
(dp1218
g317
(lp1219
g60
ag0
(g313
g2
Ntp1220
Rp1221
(dp1222
g317
(lp1223
g58
ag0
(g313
g2
Ntp1224
Rp1225
(dp1226
g317
(lp1227
g57
ag0
(g313
g2
Ntp1228
Rp1229
(dp1230
g317
(lp1231
g56
ag59
asg327
F0.6521739130434783
sbasg327
F0.6666666666666667
sbasg327
F0.6818181818181819
sbasg327
F0.75
sbasg327
F0.8
sbasg327
F0.8214285714285714
sbag0
(g313
g2
Ntp1232
Rp1233
(dp1234
g317
(lp1235
g0
(g313
g2
Ntp1236
Rp1237
(dp1238
g317
(lp1239
g0
(g313
g2
Ntp1240
Rp1241
(dp1242
g317
(lp1243
g200
ag201
asg327
F0.7391304347826086
sbag0
(g313
g2
Ntp1244
Rp1245
(dp1246
g317
(lp1247
g170
ag0
(g313
g2
Ntp1248
Rp1249
(dp1250
g317
(lp1251
g0
(g313
g2
Ntp1252
Rp1253
(dp1254
g317
(lp1255
g177
ag0
(g313
g2
Ntp1256
Rp1257
(dp1258
g317
(lp1259
g171
ag0
(g313
g2
Ntp1260
Rp1261
(dp1262
g317
(lp1263
g172
ag290
asg327
F0.6470588235294117
sbasg327
F0.76
sbasg327
F0.7894736842105263
sbag0
(g313
g2
Ntp1264
Rp1265
(dp1266
g317
(lp1267
g0
(g313
g2
Ntp1268
Rp1269
(dp1270
g317
(lp1271
g167
ag169
asg327
F0.782608695652174
sbag0
(g313
g2
Ntp1272
Rp1273
(dp1274
g317
(lp1275
g160
ag0
(g313
g2
Ntp1276
Rp1277
(dp1278
g317
(lp1279
g0
(g313
g2
Ntp1280
Rp1281
(dp1282
g317
(lp1283
g174
ag175
asg327
F0.7
sbag0
(g313
g2
Ntp1284
Rp1285
(dp1286
g317
(lp1287
g166
ag0
(g313
g2
Ntp1288
Rp1289
(dp1290
g317
(lp1291
g168
ag0
(g313
g2
Ntp1292
Rp1293
(dp1294
g317
(lp1295
g165
ag173
asg327
F0.631578947368421
sbasg327
F0.6666666666666667
sbasg327
F0.7391304347826086
sbasg327
F0.7391304347826086
sbasg327
F0.7894736842105263
sbasg327
F0.7894736842105263
sbasg327
F0.7894736842105263
sbasg327
F0.8181818181818181
sbasg327
F0.8181818181818181
sbag0
(g313
g2
Ntp1296
Rp1297
(dp1298
g317
(lp1299
g194
ag0
(g313
g2
Ntp1300
Rp1301
(dp1302
g317
(lp1303
g34
ag0
(g313
g2
Ntp1304
Rp1305
(dp1306
g317
(lp1307
g0
(g313
g2
Ntp1308
Rp1309
(dp1310
g317
(lp1311
g241
ag0
(g313
g2
Ntp1312
Rp1313
(dp1314
g317
(lp1315
g0
(g313
g2
Ntp1316
Rp1317
(dp1318
g317
(lp1319
g282
ag283
asg327
F0.6666666666666667
sbag0
(g313
g2
Ntp1320
Rp1321
(dp1322
g317
(lp1323
g284
ag285
asg327
F0.782608695652174
sbasg327
F0.782608695652174
sbasg327
F0.7857142857142857
sbag0
(g313
g2
Ntp1324
Rp1325
(dp1326
g317
(lp1327
g0
(g313
g2
Ntp1328
Rp1329
(dp1330
g317
(lp1331
g193
ag0
(g313
g2
Ntp1332
Rp1333
(dp1334
g317
(lp1335
g33
ag192
asg327
F0.72
sbasg327
F0.76
sbag0
(g313
g2
Ntp1336
Rp1337
(dp1338
g317
(lp1339
g29
ag0
(g313
g2
Ntp1340
Rp1341
(dp1342
g317
(lp1343
g17
ag35
asg327
F0.7272727272727273
sbasg327
F0.7619047619047619
sbasg327
F0.8076923076923077
sbasg327
F0.8076923076923077
sbasg327
F0.8095238095238095
sbasg327
F0.8260869565217391
sbasg327
F0.8333333333333334
sbasg327
F0.84
sbasg327
F0.85
sbasg327
F0.85
sbasg327
F0.85
sbasg327
F0.8571428571428572
sbasg327
F0.8571428571428572
sbasg327
F0.8571428571428572
sbasg327
F0.8571428571428572
sbasg327
F0.8571428571428572
sbasg327
F0.8571428571428572
sbasg327
F0.8571428571428572
sbag0
(g313
g2
Ntp1344
Rp1345
(dp1346
g317
(lp1347
g0
(g313
g2
Ntp1348
Rp1349
(dp1350
g317
(lp1351
g0
(g313
g2
Ntp1352
Rp1353
(dp1354
g317
(lp1355
g0
(g313
g2
Ntp1356
Rp1357
(dp1358
g317
(lp1359
g223
ag0
(g313
g2
Ntp1360
Rp1361
(dp1362
g317
(lp1363
g221
ag222
asg327
F0.6923076923076923
sbasg327
F0.7241379310344828
sbag0
(g313
g2
Ntp1364
Rp1365
(dp1366
g317
(lp1367
g77
ag78
asg327
F0.8
sbasg327
F0.8181818181818181
sbag0
(g313
g2
Ntp1368
Rp1369
(dp1370
g317
(lp1371
g0
(g313
g2
Ntp1372
Rp1373
(dp1374
g317
(lp1375
g50
ag0
(g313
g2
Ntp1376
Rp1377
(dp1378
g317
(lp1379
g305
ag0
(g313
g2
Ntp1380
Rp1381
(dp1382
g317
(lp1383
g220
ag299
asg327
F0.6538461538461539
sbasg327
F0.7307692307692308
sbasg327
F0.8333333333333334
sbag0
(g313
g2
Ntp1384
Rp1385
(dp1386
g317
(lp1387
g55
ag0
(g313
g2
Ntp1388
Rp1389
(dp1390
g317
(lp1391
g129
ag130
asg327
F0.8
sbasg327
F0.8387096774193549
sbasg327
F0.84
sbasg327
F0.8571428571428572
sbag0
(g313
g2
Ntp1392
Rp1393
(dp1394
g317
(lp1395
g0
(g313
g2
Ntp1396
Rp1397
(dp1398
g317
(lp1399
g42
ag0
(g313
g2
Ntp1400
Rp1401
(dp1402
g317
(lp1403
g74
ag164
asg327
F0.6842105263157895
sbasg327
F0.8421052631578947
sbag0
(g313
g2
Ntp1404
Rp1405
(dp1406
g317
(lp1407
g227
ag0
(g313
g2
Ntp1408
Rp1409
(dp1410
g317
(lp1411
g117
ag0
(g313
g2
Ntp1412
Rp1413
(dp1414
g317
(lp1415
g0
(g313
g2
Ntp1416
Rp1417
(dp1418
g317
(lp1419
g0
(g313
g2
Ntp1420
Rp1421
(dp1422
g317
(lp1423
g226
ag0
(g313
g2
Ntp1424
Rp1425
(dp1426
g317
(lp1427
g219
ag0
(g313
g2
Ntp1428
Rp1429
(dp1430
g317
(lp1431
g44
ag0
(g313
g2
Ntp1432
Rp1433
(dp1434
g317
(lp1435
g224
ag225
asg327
F0.7
sbasg327
F0.7777777777777778
sbasg327
F0.7916666666666666
sbasg327
F0.8095238095238095
sbag0
(g313
g2
Ntp1436
Rp1437
(dp1438
g317
(lp1439
g43
ag0
(g313
g2
Ntp1440
Rp1441
(dp1442
g317
(lp1443
g45
ag0
(g313
g2
Ntp1444
Rp1445
(dp1446
g317
(lp1447
g46
ag47
asg327
F0.736842105263158
sbasg327
F0.7916666666666666
sbasg327
F0.8181818181818181
sbasg327
F0.85
sbag0
(g313
g2
Ntp1448
Rp1449
(dp1450
g317
(lp1451
g0
(g313
g2
Ntp1452
Rp1453
(dp1454
g317
(lp1455
g0
(g313
g2
Ntp1456
Rp1457
(dp1458
g317
(lp1459
g258
ag0
(g313
g2
Ntp1460
Rp1461
(dp1462
g317
(lp1463
g203
ag0
(g313
g2
Ntp1464
Rp1465
(dp1466
g317
(lp1467
g204
ag205
asg327
F0.8
sbasg327
F0.8260869565217391
sbasg327
F0.8260869565217391
sbag0
(g313
g2
Ntp1468
Rp1469
(dp1470
g317
(lp1471
g0
(g313
g2
Ntp1472
Rp1473
(dp1474
g317
(lp1475
g38
ag0
(g313
g2
Ntp1476
Rp1477
(dp1478
g317
(lp1479
g37
ag39
asg327
F0.6111111111111112
sbasg327
F0.7777777777777778
sbag0
(g313
g2
Ntp1480
Rp1481
(dp1482
g317
(lp1483
g88
ag0
(g313
g2
Ntp1484
Rp1485
(dp1486
g317
(lp1487
g86
ag87
asg327
F0.7894736842105263
sbasg327
F0.7894736842105263
sbasg327
F0.8333333333333334
sbasg327
F0.8333333333333334
sbag0
(g313
g2
Ntp1488
Rp1489
(dp1490
g317
(lp1491
g0
(g313
g2
Ntp1492
Rp1493
(dp1494
g317
(lp1495
g195
ag198
asg327
F0.75
sbag0
(g313
g2
Ntp1496
Rp1497
(dp1498
g317
(lp1499
g217
ag0
(g313
g2
Ntp1500
Rp1501
(dp1502
g317
(lp1503
g0
(g313
g2
Ntp1504
Rp1505
(dp1506
g317
(lp1507
g197
ag214
asg327
F0.6842105263157895
sbag0
(g313
g2
Ntp1508
Rp1509
(dp1510
g317
(lp1511
g215
ag216
asg327
F0.8
sbasg327
F0.8095238095238095
sbasg327
F0.8181818181818181
sbasg327
F0.8421052631578947
sbasg327
F0.85
sbasg327
F0.85
sbasg327
F0.8571428571428572
sbasg327
F0.8571428571428572
sbasg327
F0.8571428571428572
sbasg327
F0.8571428571428572
sbasg327
F0.8571428571428572
sbasg327
F0.8620689655172413
sbasg327
F0.8620689655172413
sbasg327
F0.8620689655172413
sbasg327
F0.8636363636363636
sbasg327
F0.8636363636363636
sbasg327
F0.8636363636363636
sbasg327
F0.8636363636363636
sbasg327
F0.8636363636363636
sbasg327
F0.8636363636363636
sbasg327
F0.8636363636363636
sbasg327
F0.8636363636363636
sbasg327
F0.8636363636363636
sbasg327
F0.8636363636363636
sbasg327
F0.8666666666666667
sbasg327
F0.8695652173913043
sbasg327
F0.8695652173913043
sbasg327
F0.8709677419354839
sbasg327
F0.875
sbasg327
F0.875
sbasg327
F0.875
sbasg327
F0.875
sbasg327
F0.875
sbasg327
F0.875
sbasg327
F0.875
sbasg327
F0.875
sbasg327
F0.8787878787878788
sbasg327
F0.88
sbasg327
F0.88
sbasg327
F0.88
sbasg327
F0.88
sbasg327
F0.88
sbasg327
F0.88
sbasg327
F0.88
sbasg327
F0.88
sbasg327
F0.88
sbasg327
F0.88
sbasg327
F0.88
sbasg327
F0.8823529411764706
sbasg327
F0.8846153846153846
sbasg327
F0.8846153846153846
sbasg327
F0.8846153846153846
sbasg327
F0.8846153846153846
sbasg327
F0.8857142857142857
sbasg327
F0.8888888888888888
sbasg327
F0.8888888888888888
sbasg327
F0.8888888888888888
sbasg327
F0.8928571428571429
sbasg327
F0.8928571428571429
sbasg327
F0.8928571428571429
sbasg327
F0.8928571428571429
sbasg327
F0.8928571428571429
sbasg327
F0.8928571428571429
sbasg327
F0.8928571428571429
sbasg327
F0.8947368421052632
sbasg327
F0.896551724137931
sbasg327
F0.896551724137931
sbasg327
F0.9
sbasg327
F0.9
sbasg327
F0.9
sbasg327
F0.9
sbasg327
F0.9
sbasg327
F0.9
sbasg327
F0.9
sbasg327
F0.9032258064516129
sbasg327
F0.9047619047619048
sbasg327
F0.9047619047619048
sbasg327
F0.9047619047619048
sbasg327
F0.9047619047619048
sbasg327
F0.9047619047619048
sbasg327
F0.9047619047619048
sbasg327
F0.9047619047619048
sbasg327
F0.90625
sbasg327
F0.90625
sbasg327
F0.9090909090909091
sbasg327
F0.9090909090909091
sbasg327
F0.9090909090909091
sbasg327
F0.9090909090909091
sbasg327
F0.9090909090909091
sbasg327
F0.9090909090909091
sbasg327
F0.9090909090909091
sbasg327
F0.9090909090909091
sbasg327
F0.9130434782608696
sbasg327
F0.9130434782608696
sbasg327
F0.9130434782608696
sbasg327
F0.9166666666666666
sbasg327
F0.9166666666666666
sbasg327
F0.9166666666666666
sbasg327
F0.9166666666666666
sbasg327
F0.92
sbasg327
F0.9375
sbasg327
F0.9433962264150944
sbasS'linkage'
p1512
Nsb.