ccopy_reg
_reconstructor
p0
(ccluster.method.hierarchical
HierarchicalClustering
p1
c__builtin__
object
p2
Ntp3
Rp4
(dp5
S'distance'
p6
NsS'_input'
p7
(lp8
S''
p9
aV7210
p10
aV99
p11
aVABRIEFHISTORYOFTIME
p12
aVACOUNTERFEITPRESENTMENT
p13
aVADIAMANTE
p14
aVADVERBS
p15
aVAGOODANDHAPPYCHILD
p16
aVALOTUSGROWSINTHEMUD
p17
aVALSOTHESAINTINENGLAND
p18
aVAMERICANPASTORAL
p19
aVANDWHOWILLMAKETHECHAPATIS
p20
aVANENCYCLOPEDIAOFCLAIMSFRAUDSANDHOAXESOFTHEOCCULTANDSUPERNATURAL
p21
aVANEWLIFE
p22
aVANGELFIREEAST
p23
aVANIMPERATIVEDUTY
p24
aVANTRAX
p25
aVAPLACEOFGREATERSAFETY
p26
aVAPRINCESSOFMARS
p27
aVARINGOFENDLESSLIGHT
p28
aVARTHURTHESEEINGSTONE
p29
aVASHESOFVICTORY
p30
aVASSIGNMENTINETERNITY
p31
aVATTHEFEETOFTHEMASTER
p32
aVBAMBOOINTHEWIND
p33
aVBANQUETSOFTHEBLACKWIDOWERS
p34
aVBARACKOBAMADERSCHWARZEKENNEDY
p35
aVBASKETCASE
p36
aVBATTLEHYMNOFCHINA
p37
aVBATTLESYSTEMSKIRMISHES
p38
aVBAZILBROKETAIL
p39
aVBEAUTIFULSTRANGER
p40
aVBENEATHTHENEON
p41
aVBETWEENHEAVENANDHELL
p42
aVBINGCROSBYSLASTSONG
p43
aVBLONDE
p44
aVBOOKOFLONGING
p45
aVBOOKOFMATCHES
p46
aVBRIDGETJONESSDIARY
p47
aVCASTLERICHMOND
p48
aVCHASINGTHEBEARAYOUNGSPENSERNOVEL
p49
aVCHICKSINCHAINMAIL
p50
aVCHOCKY
p51
aVCLANDESTINE
p52
aVCLICK
p53
aVCOBRATRAP
p54
aVCOMMONWEALTHLAWREPORTS
p55
aVCONAN
p56
aVCONCLUDINGUNSCIENTIFICPOSTSCRIPTTOPHILOSOPHICALFRAGMENTS
p57
aVCONDEMNATION
p58
aVCORSAIRSOFTHEGREATSEA
p59
aVDAMIANANDTHEDRAGONMODERNGREEKFOLKTALES
p60
aVDARCYSSTORY
p61
aVDARKSIDEOFTHEMORGUE
p62
aVDARKTHANE
p63
aVDAWEIYAZAWIN
p64
aVDEFENDINGIDENTITYITSINDISPENSABLEROLEINPROTECTINGDEMOCRACY
p65
aVDEXTERBEXLEYANDTHEBIGBLUEBEASTIE
p66
aVDISCOVERINGPSYCHOLOGY
p67
aVDISPOSICINFINAL
p68
aVDISTILLATIONDESIGN
p69
aVDIWANEGHALIB
p70
aVDMONOMANIA
p71
aVDOWNTHEREONAVISIT
p72
aVDRAGONSKIN
p73
aVDREAMBOY
p74
aVDUNGEONEERSSURVIVALGUIDE
p75
aVDUNGEONSDRAGONSSUPPLEMENTIIBLACKMOOR
p76
aVEASYRIDERSRAGINGBULLS
p77
aVEVESSEEDBIOLOGYTHESEXESANDTHECOURSEOFHISTORY
p78
aVEYESPY
p79
aVFABIOLA
p80
aVFARMERGILESOFHAM
p81
aVFILEUNDERPOPULAR
p82
aVFLAGINEXILE
p83
aVFOOTNOTESINGAZA
p84
aVFORGOTTENREALMSADVENTURES
p85
aVFORLOVEOFMOTHERNOT
p86
aVFRACTALMODE
p87
aVFREEAMAZONSOFDARKOVER
p88
aVFROMOTHERWORLDS
p89
aVGENERATIONSOFWINTER
p90
aVGOINGBOVINE
p91
aVGREENMARS
p92
aVHAROLDANDTHEPURPLECRAYON
p93
aVHEAT
p94
aVHEROESOFHORROR
p95
aVHIGHFIVE
p96
aVHITANDRUN
p97
aVHOVERCARRACER
p98
aVHOWLATEITWASHOWLATE
p99
aVICESTATION
p100
aVIFHEHOLLERSLETHIMGO
p101
aVINCIDENTS
p102
aVINCONVENIENTDEAD
p103
aVINHISSTEPS
p104
aVINJOSSWHEDONSFIREFLY
p105
aVINSIDEUSA
p106
aVINTHEBELLYOFTHEBEAST
p107
aVJUMPER
p108
aVKEEPER
p109
aVKINGRAT
p110
aVLANKAROFCALLISTO
p111
aVLARRYSPARTY
p112
aVLAZZATUNNISA
p113
aVLESBELLESDENUITOULESANGESDELAFAMILLE
p114
aVLETTIMEPASS
p115
aVLIGHTNING
p116
aVLOEUVRE
p117
aVLONDONBRIDGES
p118
aVLONDONFIELDS
p119
aVMAGICSTEPS
p120
aVMAKEDEATHLOVEME
p121
aVMANTISSA
p122
aVMARKETFORCES
p123
aVMASTERSOFTHEMAZE
p124
aVMEMOIRSOFMYLIFEANDWRITINGS
p125
aVMIDDLESEX
p126
aVMINDGAME
p127
aVMISSEELEE
p128
aVMISTBORNTHEFINALEMPIRE
p129
aVMORETHANHONOR
p130
aVMORTALENGINES
p131
aVMRSBASILEFRANKWEILER
p132
aVMRSMCGINTYSDEAD
p133
aVMURDERBEINGONCEDONE
p134
aVMYBROTHERSKEEPER
p135
aVNAMELESSCULTSTHECTHULHUMYTHOSFICTIONOFROBERTEHOWARD
p136
aVNELSONEDDYTHEOPERAYEARS
p137
aVNEWWORLDWAITING
p138
aVNIGHTOFKNIVES
p139
aVNOTALKING
p140
aVNOTHINGLIKEITINTHEWORLD
p141
aVNUMBERTHESTARS
p142
aVOATHOFSWORDS
p143
aVOCEANOFBLOOD
p144
aVONHUMANNATURE
p145
aVOUTOFAFRICA
p146
aVOXFORDDICTIONARYOFSAINTS
p147
aVPALACEOFTHEWHITESKUNKS
p148
aVPAPERCITIESANANTHOLOGYOFURBANFANTASY
p149
aVPAYITFORWARD
p150
aVPICTURETHIS
p151
aVPIRATEOLOGYAPIRATEHUNTERSCOMPANION
p152
aVPIRATESOFTHECARIBBEAN
p153
aVPIRATICAIIITHEFAMILYSEA
p154
aVPODKAYNEOFMARS
p155
aVPOLITICS
p156
aVPRETTYLITTLETHINGS
p157
aVPROMETHEUSRISING
p158
aVPUTOUTMOREFLAGS
p159
aVRANSOMMYHEART
p160
aVRITE
p161
aVROALDDAHLSBOOKOFGHOSTSTORIES
p162
aVROLEOFHONOUR
p163
aVSANCTUARY
p164
aVSAROJINISAHOOSTORIES
p165
aVSATORIINPARIS
p166
aVSCHOOLOFFIRE
p167
aVSCORPIONSOUP
p168
aVSCRIVENERSMOON
p169
aVSEDUCTIVEPOISON
p170
aVSHATTERME
p171
aVSHERLOCKHOLMESTHEUNAUTHORIZEDBIOGRAPHY
p172
aVSIDEJOBS
p173
aVSITTMARIEROSE
p174
aVSKINNYBITCHBOOKOFVEGANSWAPS
p175
aVSKIOS
p176
aVSLAJCOUNTYMONOGRAPH
p177
aVSMARTMOBSTHENEXTSOCIALREVOLUTION
p178
aVSOLARIS
p179
aVSOLESURVIVOR
p180
aVSPACEOPERA
p181
aVSPEED
p182
aVSTANDINGINANOTHERMANSGRAVE
p183
aVTARTARINDETARASCON
p184
aVTHEADVENTUREOFTHEUNIQUEDICKENSIANS
p185
aVTHEADVENTURESOFLUCKYPIERREDIRECTORSCUT
p186
aVTHEAMAZINGADVENTURESOFKAVALIERCLAY
p187
aVTHEAPEWHOGUARDSTHEBALANCE
p188
aVTHEAPPROACHINGSTORM
p189
aVTHEATMOSPHERICRAILWAY
p190
aVTHEAUTOBIOGRAPHYOFZARAHPETRI
p191
aVTHEBARNUMMUSEUM
p192
aVTHEBISHOPSMANTLE
p193
aVTHEBLACKCOUNT
p194
aVTHEBLOODOFTHENATION
p195
aVTHEBRIDESOFMARCHMEMOIROFASAMESEXMARRIAGE
p196
aVTHECASEOFNATALEEHOLLOWAY
p197
aVTHECATWHOPLAYEDPOSTOFFICE
p198
aVTHECHARNELPRINCE
p199
aVTHECITADELOFCHAOS
p200
aVTHECLANCORPORATE
p201
aVTHECLUEINTHEDIARY
p202
aVTHECLUEINTHEOLDALBUM
p203
aVTHECOLORPURPLE
p204
aVTHEDARKCHATEAU
p205
aVTHEDEEPENDOFTHEOCEAN
p206
aVTHEDEMONAWAKENS
p207
aVTHEDIAGNOSISOFLOVE
p208
aVTHEDRAGONMAN
p209
aVTHEDUNGEONSOFTORGAR
p210
aVTHEEDUCATIONOFROBERTNIFKIN
p211
aVTHEEGOANDITSOWN
p212
aVTHEEINSTEININTERSECTION
p213
aVTHEENCHANTER
p214
aVTHEEYEOFTHETIGER
p215
aVTHEFINALSOLUTION
p216
aVTHEFOLLOWERS
p217
aVTHEFOURELEMENTSOFARCHITECTURE
p218
aVTHEFOURSEASONSOFMARYAZARIAN
p219
aVTHEFRANKENFOODMYTH
p220
aVTHEGARDENOFGOD
p221
aVTHEGHOSTATSKELETONROCK
p222
aVTHEGIVER
p223
aVTHEGREATDIVORCE
p224
aVTHEGYPSY
p225
aVTHEHERITAGEOFARN
p226
aVTHEHORKBAJIRCHRONICLES
p227
aVTHEIRRESISTIBLEREVOLUTION
p228
aVTHEJEWOFLINZ
p229
aVTHELIFEANDADVENTURES
p230
aVTHELIGHTHOUSE
p231
aVTHELIONTHEWITCHANDTHEWARDROBE
p232
aVTHELITERATUREOFAUSTRALIANBIRDS
p233
aVTHELIVESOFDUTCHPAINTERSANDPAINTRESSES
p234
aVTHEMAMMOTHBOOKOFEXTREMESCIENCEFICTION
p235
aVTHEMANTHATCORRUPTEDHADLEYBURG
p236
aVTHEMAZERUNNER
p237
aVTHEMEDUSASTONE
p238
aVTHEMEMEMACHINE
p239
aVTHEMISTSOFAVALON
p240
aVTHEMYSTERYOFSMUGGLERSCOVE
p241
aVTHENANNY
p242
aVTHENURSERYALICE
p243
aVTHEOLDCURIOSITYSHOP
p244
aVTHEOUTLAWSSILVER
p245
aVTHEPATHSOFTHEPERAMBULATOR
p246
aVTHEPHOBOSSCIENCEFICTIONANTHOLOGYVOLUME2HITTINGTHESKIDSINPIXELTOWN
p247
aVTHEPRICEOFTHETICKET
p248
aVTHEPRISONEROFZHAMANAK
p249
aVTHEPROPHECYOFTHESTONES
p250
aVTHEPURPLEDECADES
p251
aVTHEQUEENSAMULET
p252
aVTHERESTAURANTATTHEENDOFTHEUNIVERSE
p253
aVTHERETURNOFJOHNMACNAB
p254
aVTHEREVOLUTIONWILLNOTBEMICROWAVEDINSIDEAMERICASUNDERGROUNDFOODMOVEMENTS
p255
aVTHERIGHTHANDMAN
p256
aVTHERUNESTAFF
p257
aVTHESAINTSLADY
p258
aVTHESCARLETPLAGUE
p259
aVTHESECRETSHARER
p260
aVTHESKYTHEARTOFFINALFANTASYSLIPCASEDEDITION
p261
aVTHESNOWYDAY
p262
aVTHESTANDTHECOMPLETEUNCUTEDITION
p263
aVTHESTRANGEDEATHOFVINCENTFOSTERANINVESTIGATION
p264
aVTHESUICIDECOLLECTORS
p265
aVTHESWARM
p266
aVTHESWARMWAR
p267
aVTHESWORDSOFNIGHTANDDAY
p268
aVTHETAMINGOFCHANCE
p269
aVTHETENTHINSIGHTHOLDINGTHEVISION
p270
aVTHETIMEINBETWEEN
p271
aVTHETOWEROFTHEELEPHANT
p272
aVTHETRANSMIGRATIONOFTIMOTHYARCHER
p273
aVTHETRUCE
p274
aVTHETRUTHABOUTHILLARY
p275
aVTHETYRANTOFTIME
p276
aVTHEUNEXPECTED
p277
aVTHEVASTFIELDSOFORDINARY
p278
aVTHEWASTELANDS
p279
aVTHEWHOLEBEASTNOSETOTAILEATING
p280
aVTHEWINDSTWELVEQUARTERS
p281
aVTHEWITCHSHEAD
p282
aVTHEWORKSOFMPSHIEL
p283
aVTHEWORMSOFKUKUMLIMA
p284
aVTHEWYVERNSSPUR
p285
aVTHISTOWNWILLNEVERLETUSGO
p286
aVTHREEHANDSINTHEFOUNTAIN
p287
aVTHUNDERPOINT
p288
aVTIMESARROWORTHENATUREOFTHEOFFENCE
p289
aVTITHEAMODERNFAERIETALE
p290
aVTOPBALLISTA
p291
aVTREASON
p292
aVTWILIGHT
p293
aVUMBRELLA
p294
aVUNDERTHEGREENSTAR
p295
aVUNDERWESTERNEYES
p296
aVVOSS
p297
aVWARLORDSOFUTOPIA
p298
aVWASHINGTONSQUARE
p299
aVWESTMARK
p300
aVWHATHETTYDID
p301
aVWHATKATYDID
p302
aVWHERETHEYCREATE
p303
aVWHEREWEBELONG
p304
aVWHITEMUGHALS
p305
aVWOMENOFTAMMUZ
p306
aVXPD
p307
aVXWINGROGUESQUADRON
p308
asS'num_processes'
p309
I1
sS'_HierarchicalClustering__cluster_created'
p310
I01
sS'_data'
p311
(lp312
g0
(ccluster.cluster
Cluster
p313
g2
Ntp314
Rp315
(dp316
S'_Cluster__items'
p317
(lp318
g0
(g313
g2
Ntp319
Rp320
(dp321
g317
(lp322
g9
ag10
asS'_Cluster__level'
p323
F1.0
sbag0
(g313
g2
Ntp324
Rp325
(dp326
g317
(lp327
g11
ag0
(g313
g2
Ntp328
Rp329
(dp330
g317
(lp331
g114
ag0
(g313
g2
Ntp332
Rp333
(dp334
g317
(lp335
g57
ag0
(g313
g2
Ntp336
Rp337
(dp338
g317
(lp339
g105
ag0
(g313
g2
Ntp340
Rp341
(dp342
g317
(lp343
g77
ag0
(g313
g2
Ntp344
Rp345
(dp346
g317
(lp347
g65
ag0
(g313
g2
Ntp348
Rp349
(dp350
g317
(lp351
g306
ag0
(g313
g2
Ntp352
Rp353
(dp354
g317
(lp355
g55
ag0
(g313
g2
Ntp356
Rp357
(dp358
g317
(lp359
g146
ag0
(g313
g2
Ntp360
Rp361
(dp362
g317
(lp363
g35
ag0
(g313
g2
Ntp364
Rp365
(dp366
g317
(lp367
g16
ag0
(g313
g2
Ntp368
Rp369
(dp370
g317
(lp371
g150
ag0
(g313
g2
Ntp372
Rp373
(dp374
g317
(lp375
g0
(g313
g2
Ntp376
Rp377
(dp378
g317
(lp379
g111
ag291
asg323
F0.8518518518518519
sbag0
(g313
g2
Ntp380
Rp381
(dp382
g317
(lp383
g112
ag0
(g313
g2
Ntp384
Rp385
(dp386
g317
(lp387
g51
ag0
(g313
g2
Ntp388
Rp389
(dp390
g317
(lp391
g0
(g313
g2
Ntp392
Rp393
(dp394
g317
(lp395
g67
ag149
asg323
F0.9107142857142857
sbag0
(g313
g2
Ntp396
Rp397
(dp398
g317
(lp399
g0
(g313
g2
Ntp400
Rp401
(dp402
g317
(lp403
g299
ag308
asg323
F0.9142857142857143
sbag0
(g313
g2
Ntp404
Rp405
(dp406
g317
(lp407
g0
(g313
g2
Ntp408
Rp409
(dp410
g317
(lp411
g19
ag48
asg323
F0.9032258064516129
sbag0
(g313
g2
Ntp412
Rp413
(dp414
g317
(lp415
g0
(g313
g2
Ntp416
Rp417
(dp418
g317
(lp419
g80
ag294
asg323
F0.8823529411764706
sbag0
(g313
g2
Ntp420
Rp421
(dp422
g317
(lp423
g83
ag0
(g313
g2
Ntp424
Rp425
(dp426
g317
(lp427
g79
ag0
(g313
g2
Ntp428
Rp429
(dp430
g317
(lp431
g99
ag0
(g313
g2
Ntp432
Rp433
(dp434
g317
(lp435
g139
ag0
(g313
g2
Ntp436
Rp437
(dp438
g317
(lp439
g70
ag0
(g313
g2
Ntp440
Rp441
(dp442
g317
(lp443
g21
ag0
(g313
g2
Ntp444
Rp445
(dp446
g317
(lp447
g0
(g313
g2
Ntp448
Rp449
(dp450
g317
(lp451
g96
ag97
asg323
F0.8947368421052632
sbag0
(g313
g2
Ntp452
Rp453
(dp454
g317
(lp455
g159
ag0
(g313
g2
Ntp456
Rp457
(dp458
g317
(lp459
g84
ag0
(g313
g2
Ntp460
Rp461
(dp462
g317
(lp463
g40
ag0
(g313
g2
Ntp464
Rp465
(dp466
g317
(lp467
g307
ag0
(g313
g2
Ntp468
Rp469
(dp470
g317
(lp471
g300
ag0
(g313
g2
Ntp472
Rp473
(dp474
g317
(lp475
g177
ag0
(g313
g2
Ntp476
Rp477
(dp478
g317
(lp479
g174
ag0
(g313
g2
Ntp480
Rp481
(dp482
g317
(lp483
g113
ag0
(g313
g2
Ntp484
Rp485
(dp486
g317
(lp487
g72
ag0
(g313
g2
Ntp488
Rp489
(dp490
g317
(lp491
g101
ag0
(g313
g2
Ntp492
Rp493
(dp494
g317
(lp495
g0
(g313
g2
Ntp496
Rp497
(dp498
g317
(lp499
g49
ag50
asg323
F0.8958333333333334
sbag0
(g313
g2
Ntp500
Rp501
(dp502
g317
(lp503
g168
ag0
(g313
g2
Ntp504
Rp505
(dp506
g317
(lp507
g68
ag0
(g313
g2
Ntp508
Rp509
(dp510
g317
(lp511
g24
ag0
(g313
g2
Ntp512
Rp513
(dp514
g317
(lp515
g0
(g313
g2
Ntp516
Rp517
(dp518
g317
(lp519
g81
ag0
(g313
g2
Ntp520
Rp521
(dp522
g317
(lp523
g0
(g313
g2
Ntp524
Rp525
(dp526
g317
(lp527
g26
ag31
asg323
F0.9024390243902439
sbag0
(g313
g2
Ntp528
Rp529
(dp530
g317
(lp531
g183
ag0
(g313
g2
Ntp532
Rp533
(dp534
g317
(lp535
g20
ag0
(g313
g2
Ntp536
Rp537
(dp538
g317
(lp539
g0
(g313
g2
Ntp540
Rp541
(dp542
g317
(lp543
g115
ag297
asg323
F0.8823529411764706
sbag0
(g313
g2
Ntp544
Rp545
(dp546
g317
(lp547
g286
ag0
(g313
g2
Ntp548
Rp549
(dp550
g317
(lp551
g74
ag0
(g313
g2
Ntp552
Rp553
(dp554
g317
(lp555
g71
ag0
(g313
g2
Ntp556
Rp557
(dp558
g317
(lp559
g0
(g313
g2
Ntp560
Rp561
(dp562
g317
(lp563
g44
ag0
(g313
g2
Ntp564
Rp565
(dp566
g317
(lp567
g36
ag39
asg323
F0.88
sbasg323
F0.8888888888888888
sbag0
(g313
g2
Ntp568
Rp569
(dp570
g317
(lp571
g298
ag0
(g313
g2
Ntp572
Rp573
(dp574
g317
(lp575
g171
ag0
(g313
g2
Ntp576
Rp577
(dp578
g317
(lp579
g160
ag0
(g313
g2
Ntp580
Rp581
(dp582
g317
(lp583
g132
ag0
(g313
g2
Ntp584
Rp585
(dp586
g317
(lp587
g126
ag0
(g313
g2
Ntp588
Rp589
(dp590
g317
(lp591
g122
ag0
(g313
g2
Ntp592
Rp593
(dp594
g317
(lp595
g0
(g313
g2
Ntp596
Rp597
(dp598
g317
(lp599
g301
ag302
asg323
F0.5
sbag0
(g313
g2
Ntp600
Rp601
(dp602
g317
(lp603
g0
(g313
g2
Ntp604
Rp605
(dp606
g317
(lp607
g0
(g313
g2
Ntp608
Rp609
(dp610
g317
(lp611
g172
ag191
asg323
F0.8524590163934427
sbag0
(g313
g2
Ntp612
Rp613
(dp614
g317
(lp615
g0
(g313
g2
Ntp616
Rp617
(dp618
g317
(lp619
g94
ag110
asg323
F0.8461538461538461
sbag0
(g313
g2
Ntp620
Rp621
(dp622
g317
(lp623
g164
ag0
(g313
g2
Ntp624
Rp625
(dp626
g317
(lp627
g147
ag0
(g313
g2
Ntp628
Rp629
(dp630
g317
(lp631
g145
ag0
(g313
g2
Ntp632
Rp633
(dp634
g317
(lp635
g144
ag0
(g313
g2
Ntp636
Rp637
(dp638
g317
(lp639
g53
ag0
(g313
g2
Ntp640
Rp641
(dp642
g317
(lp643
g78
ag0
(g313
g2
Ntp644
Rp645
(dp646
g317
(lp647
g0
(g313
g2
Ntp648
Rp649
(dp650
g317
(lp651
g37
ag38
asg323
F0.8378378378378378
sbag0
(g313
g2
Ntp652
Rp653
(dp654
g317
(lp655
g0
(g313
g2
Ntp656
Rp657
(dp658
g317
(lp659
g0
(g313
g2
Ntp660
Rp661
(dp662
g317
(lp663
g14
ag161
asg323
F0.8666666666666667
sbag0
(g313
g2
Ntp664
Rp665
(dp666
g317
(lp667
g22
ag25
asg323
F0.875
sbasg323
F0.8823529411764706
sbag0
(g313
g2
Ntp668
Rp669
(dp670
g317
(lp671
g0
(g313
g2
Ntp672
Rp673
(dp674
g317
(lp675
g158
ag0
(g313
g2
Ntp676
Rp677
(dp678
g317
(lp679
g151
ag157
asg323
F0.8214285714285714
sbasg323
F0.8823529411764706
sbag0
(g313
g2
Ntp680
Rp681
(dp682
g317
(lp683
g305
ag0
(g313
g2
Ntp684
Rp685
(dp686
g317
(lp687
g182
ag0
(g313
g2
Ntp688
Rp689
(dp690
g317
(lp691
g143
ag0
(g313
g2
Ntp692
Rp693
(dp694
g317
(lp695
g15
ag0
(g313
g2
Ntp696
Rp697
(dp698
g317
(lp699
g66
ag0
(g313
g2
Ntp700
Rp701
(dp702
g317
(lp703
g254
ag0
(g313
g2
Ntp704
Rp705
(dp706
g317
(lp707
g181
ag0
(g313
g2
Ntp708
Rp709
(dp710
g317
(lp711
g87
ag0
(g313
g2
Ntp712
Rp713
(dp714
g317
(lp715
g41
ag0
(g313
g2
Ntp716
Rp717
(dp718
g317
(lp719
g23
ag0
(g313
g2
Ntp720
Rp721
(dp722
g317
(lp723
g280
ag0
(g313
g2
Ntp724
Rp725
(dp726
g317
(lp727
g236
ag0
(g313
g2
Ntp728
Rp729
(dp730
g317
(lp731
g290
ag0
(g313
g2
Ntp732
Rp733
(dp734
g317
(lp735
g0
(g313
g2
Ntp736
Rp737
(dp738
g317
(lp739
g52
ag91
asg323
F0.8695652173913043
sbag0
(g313
g2
Ntp740
Rp741
(dp742
g317
(lp743
g0
(g313
g2
Ntp744
Rp745
(dp746
g317
(lp747
g108
ag0
(g313
g2
Ntp748
Rp749
(dp750
g317
(lp751
g109
ag135
asg323
F0.7
sbasg323
F0.7692307692307692
sbag0
(g313
g2
Ntp752
Rp753
(dp754
g317
(lp755
g148
ag0
(g313
g2
Ntp756
Rp757
(dp758
g317
(lp759
g121
ag0
(g313
g2
Ntp760
Rp761
(dp762
g317
(lp763
g54
ag0
(g313
g2
Ntp764
Rp765
(dp766
g317
(lp767
g196
ag0
(g313
g2
Ntp768
Rp769
(dp770
g317
(lp771
g88
ag0
(g313
g2
Ntp772
Rp773
(dp774
g317
(lp775
g17
ag0
(g313
g2
Ntp776
Rp777
(dp778
g317
(lp779
g0
(g313
g2
Ntp780
Rp781
(dp782
g317
(lp783
g156
ag0
(g313
g2
Ntp784
Rp785
(dp786
g317
(lp787
g92
ag0
(g313
g2
Ntp788
Rp789
(dp790
g317
(lp791
g27
ag155
asg323
F0.7777777777777778
sbasg323
F0.8260869565217391
sbasg323
F0.8695652173913043
sbag0
(g313
g2
Ntp792
Rp793
(dp794
g317
(lp795
g0
(g313
g2
Ntp796
Rp797
(dp798
g317
(lp799
g127
ag128
asg323
F0.8333333333333334
sbag0
(g313
g2
Ntp800
Rp801
(dp802
g317
(lp803
g0
(g313
g2
Ntp804
Rp805
(dp806
g317
(lp807
g118
ag119
asg323
F0.6818181818181819
sbag0
(g313
g2
Ntp808
Rp809
(dp810
g317
(lp811
g90
ag0
(g313
g2
Ntp812
Rp813
(dp814
g317
(lp815
g0
(g313
g2
Ntp816
Rp817
(dp818
g317
(lp819
g169
ag170
asg323
F0.8620689655172413
sbag0
(g313
g2
Ntp820
Rp821
(dp822
g317
(lp823
g64
ag0
(g313
g2
Ntp824
Rp825
(dp826
g317
(lp827
g134
ag0
(g313
g2
Ntp828
Rp829
(dp830
g317
(lp831
g107
ag0
(g313
g2
Ntp832
Rp833
(dp834
g317
(lp835
g0
(g313
g2
Ntp836
Rp837
(dp838
g317
(lp839
g173
ag0
(g313
g2
Ntp840
Rp841
(dp842
g317
(lp843
g176
ag0
(g313
g2
Ntp844
Rp845
(dp846
g317
(lp847
g180
ag0
(g313
g2
Ntp848
Rp849
(dp850
g317
(lp851
g0
(g313
g2
Ntp852
Rp853
(dp854
g317
(lp855
g0
(g313
g2
Ntp856
Rp857
(dp858
g317
(lp859
g166
ag179
asg323
F0.736842105263158
sbag0
(g313
g2
Ntp860
Rp861
(dp862
g317
(lp863
g162
ag165
asg323
F0.8181818181818181
sbasg323
F0.84375
sbag0
(g313
g2
Ntp864
Rp865
(dp866
g317
(lp867
g0
(g313
g2
Ntp868
Rp869
(dp870
g317
(lp871
g303
ag304
asg323
F0.8148148148148149
sbag0
(g313
g2
Ntp872
Rp873
(dp874
g317
(lp875
g175
ag0
(g313
g2
Ntp876
Rp877
(dp878
g317
(lp879
g43
ag0
(g313
g2
Ntp880
Rp881
(dp882
g317
(lp883
g45
ag46
asg323
F0.75
sbasg323
F0.8387096774193549
sbasg323
F0.8421052631578947
sbasg323
F0.8461538461538461
sbasg323
F0.8461538461538461
sbasg323
F0.85
sbasg323
F0.8571428571428572
sbasg323
F0.8666666666666667
sbag0
(g313
g2
Ntp884
Rp885
(dp886
g317
(lp887
g222
ag0
(g313
g2
Ntp888
Rp889
(dp890
g317
(lp891
g220
ag0
(g313
g2
Ntp892
Rp893
(dp894
g317
(lp895
g184
ag0
(g313
g2
Ntp896
Rp897
(dp898
g317
(lp899
g152
ag0
(g313
g2
Ntp900
Rp901
(dp902
g317
(lp903
g0
(g313
g2
Ntp904
Rp905
(dp906
g317
(lp907
g86
ag89
asg323
F0.8064516129032258
sbag0
(g313
g2
Ntp908
Rp909
(dp910
g317
(lp911
g227
ag0
(g313
g2
Ntp912
Rp913
(dp914
g317
(lp915
g0
(g313
g2
Ntp916
Rp917
(dp918
g317
(lp919
g75
ag76
asg323
F0.8571428571428572
sbag0
(g313
g2
Ntp920
Rp921
(dp922
g317
(lp923
g125
ag0
(g313
g2
Ntp924
Rp925
(dp926
g317
(lp927
g98
ag0
(g313
g2
Ntp928
Rp929
(dp930
g317
(lp931
g0
(g313
g2
Ntp932
Rp933
(dp934
g317
(lp935
g283
ag284
asg323
F0.7878787878787878
sbag0
(g313
g2
Ntp936
Rp937
(dp938
g317
(lp939
g255
ag0
(g313
g2
Ntp940
Rp941
(dp942
g317
(lp943
g137
ag0
(g313
g2
Ntp944
Rp945
(dp946
g317
(lp947
g0
(g313
g2
Ntp948
Rp949
(dp950
g317
(lp951
g30
ag61
asg323
F0.84
sbag0
(g313
g2
Ntp952
Rp953
(dp954
g317
(lp955
g229
ag0
(g313
g2
Ntp956
Rp957
(dp958
g317
(lp959
g154
ag0
(g313
g2
Ntp960
Rp961
(dp962
g317
(lp963
g42
ag0
(g313
g2
Ntp964
Rp965
(dp966
g317
(lp967
g33
ag0
(g313
g2
Ntp968
Rp969
(dp970
g317
(lp971
g13
ag0
(g313
g2
Ntp972
Rp973
(dp974
g317
(lp975
g0
(g313
g2
Ntp976
Rp977
(dp978
g317
(lp979
g62
ag63
asg323
F0.8148148148148149
sbag0
(g313
g2
Ntp980
Rp981
(dp982
g317
(lp983
g47
ag0
(g313
g2
Ntp984
Rp985
(dp986
g317
(lp987
g0
(g313
g2
Ntp988
Rp989
(dp990
g317
(lp991
g252
ag0
(g313
g2
Ntp992
Rp993
(dp994
g317
(lp995
g0
(g313
g2
Ntp996
Rp997
(dp998
g317
(lp999
g232
ag282
asg323
F0.7894736842105263
sbag0
(g313
g2
Ntp1000
Rp1001
(dp1002
g317
(lp1003
g241
ag0
(g313
g2
Ntp1004
Rp1005
(dp1006
g317
(lp1007
g205
ag0
(g313
g2
Ntp1008
Rp1009
(dp1010
g317
(lp1011
g153
ag0
(g313
g2
Ntp1012
Rp1013
(dp1014
g317
(lp1015
g0
(g313
g2
Ntp1016
Rp1017
(dp1018
g317
(lp1019
g136
ag0
(g313
g2
Ntp1020
Rp1021
(dp1022
g317
(lp1023
g0
(g313
g2
Ntp1024
Rp1025
(dp1026
g317
(lp1027
g140
ag0
(g313
g2
Ntp1028
Rp1029
(dp1030
g317
(lp1031
g138
ag141
asg323
F0.8
sbasg323
F0.8333333333333334
sbag0
(g313
g2
Ntp1032
Rp1033
(dp1034
g317
(lp1035
g249
ag0
(g313
g2
Ntp1036
Rp1037
(dp1038
g317
(lp1039
g198
ag0
(g313
g2
Ntp1040
Rp1041
(dp1042
g317
(lp1043
g0
(g313
g2
Ntp1044
Rp1045
(dp1046
g317
(lp1047
g82
ag288
asg323
F0.8148148148148149
sbag0
(g313
g2
Ntp1048
Rp1049
(dp1050
g317
(lp1051
g277
ag0
(g313
g2
Ntp1052
Rp1053
(dp1054
g317
(lp1055
g0
(g313
g2
Ntp1056
Rp1057
(dp1058
g317
(lp1059
g194
ag0
(g313
g2
Ntp1060
Rp1061
(dp1062
g317
(lp1063
g34
ag0
(g313
g2
Ntp1064
Rp1065
(dp1066
g317
(lp1067
g197
ag0
(g313
g2
Ntp1068
Rp1069
(dp1070
g317
(lp1071
g279
ag0
(g313
g2
Ntp1072
Rp1073
(dp1074
g317
(lp1075
g281
ag0
(g313
g2
Ntp1076
Rp1077
(dp1078
g317
(lp1079
g217
ag265
asg323
F0.8
sbasg323
F0.8125
sbasg323
F0.8181818181818181
sbasg323
F0.8235294117647058
sbasg323
F0.8333333333333334
sbasg323
F0.8378378378378378
sbag0
(g313
g2
Ntp1080
Rp1081
(dp1082
g317
(lp1083
g264
ag0
(g313
g2
Ntp1084
Rp1085
(dp1086
g317
(lp1087
g190
ag0
(g313
g2
Ntp1088
Rp1089
(dp1090
g317
(lp1091
g244
ag0
(g313
g2
Ntp1092
Rp1093
(dp1094
g317
(lp1095
g0
(g313
g2
Ntp1096
Rp1097
(dp1098
g317
(lp1099
g235
ag247
asg323
F0.8222222222222222
sbag0
(g313
g2
Ntp1100
Rp1101
(dp1102
g317
(lp1103
g289
ag0
(g313
g2
Ntp1104
Rp1105
(dp1106
g317
(lp1107
g287
ag0
(g313
g2
Ntp1108
Rp1109
(dp1110
g317
(lp1111
g278
ag0
(g313
g2
Ntp1112
Rp1113
(dp1114
g317
(lp1115
g259
ag0
(g313
g2
Ntp1116
Rp1117
(dp1118
g317
(lp1119
g240
ag0
(g313
g2
Ntp1120
Rp1121
(dp1122
g317
(lp1123
g211
ag0
(g313
g2
Ntp1124
Rp1125
(dp1126
g317
(lp1127
g207
ag0
(g313
g2
Ntp1128
Rp1129
(dp1130
g317
(lp1131
g129
ag0
(g313
g2
Ntp1132
Rp1133
(dp1134
g317
(lp1135
g116
ag0
(g313
g2
Ntp1136
Rp1137
(dp1138
g317
(lp1139
g270
ag0
(g313
g2
Ntp1140
Rp1141
(dp1142
g317
(lp1143
g0
(g313
g2
Ntp1144
Rp1145
(dp1146
g317
(lp1147
g208
ag0
(g313
g2
Ntp1148
Rp1149
(dp1150
g317
(lp1151
g202
ag203
asg323
F0.5862068965517242
sbasg323
F0.8181818181818181
sbag0
(g313
g2
Ntp1152
Rp1153
(dp1154
g317
(lp1155
g212
ag0
(g313
g2
Ntp1156
Rp1157
(dp1158
g317
(lp1159
g210
ag0
(g313
g2
Ntp1160
Rp1161
(dp1162
g317
(lp1163
g193
ag0
(g313
g2
Ntp1164
Rp1165
(dp1166
g317
(lp1167
g234
ag0
(g313
g2
Ntp1168
Rp1169
(dp1170
g317
(lp1171
g233
ag0
(g313
g2
Ntp1172
Rp1173
(dp1174
g317
(lp1175
g192
ag0
(g313
g2
Ntp1176
Rp1177
(dp1178
g317
(lp1179
g60
ag0
(g313
g2
Ntp1180
Rp1181
(dp1182
g317
(lp1183
g59
ag0
(g313
g2
Ntp1184
Rp1185
(dp1186
g317
(lp1187
g0
(g313
g2
Ntp1188
Rp1189
(dp1190
g317
(lp1191
g32
ag124
asg323
F0.7096774193548387
sbag0
(g313
g2
Ntp1192
Rp1193
(dp1194
g317
(lp1195
g188
ag0
(g313
g2
Ntp1196
Rp1197
(dp1198
g317
(lp1199
g0
(g313
g2
Ntp1200
Rp1201
(dp1202
g317
(lp1203
g93
ag0
(g313
g2
Ntp1204
Rp1205
(dp1206
g317
(lp1207
g201
ag0
(g313
g2
Ntp1208
Rp1209
(dp1210
g317
(lp1211
g204
ag251
asg323
F0.7407407407407407
sbasg323
F0.7857142857142857
sbasg323
F0.8108108108108107
sbag0
(g313
g2
Ntp1212
Rp1213
(dp1214
g317
(lp1215
g221
ag0
(g313
g2
Ntp1216
Rp1217
(dp1218
g317
(lp1219
g253
ag0
(g313
g2
Ntp1220
Rp1221
(dp1222
g317
(lp1223
g246
ag0
(g313
g2
Ntp1224
Rp1225
(dp1226
g317
(lp1227
g263
ag0
(g313
g2
Ntp1228
Rp1229
(dp1230
g317
(lp1231
g273
ag0
(g313
g2
Ntp1232
Rp1233
(dp1234
g317
(lp1235
g0
(g313
g2
Ntp1236
Rp1237
(dp1238
g317
(lp1239
g0
(g313
g2
Ntp1240
Rp1241
(dp1242
g317
(lp1243
g186
ag187
asg323
F0.7540983606557377
sbag0
(g313
g2
Ntp1244
Rp1245
(dp1246
g317
(lp1247
g185
ag0
(g313
g2
Ntp1248
Rp1249
(dp1250
g317
(lp1251
g85
ag230
asg323
F0.7435897435897436
sbasg323
F0.7659574468085106
sbasg323
F0.7659574468085106
sbag0
(g313
g2
Ntp1252
Rp1253
(dp1254
g317
(lp1255
g200
ag0
(g313
g2
Ntp1256
Rp1257
(dp1258
g317
(lp1259
g29
ag0
(g313
g2
Ntp1260
Rp1261
(dp1262
g317
(lp1263
g18
ag0
(g313
g2
Ntp1264
Rp1265
(dp1266
g317
(lp1267
g12
ag0
(g313
g2
Ntp1268
Rp1269
(dp1270
g317
(lp1271
g0
(g313
g2
Ntp1272
Rp1273
(dp1274
g317
(lp1275
g28
ag293
asg323
F0.8076923076923077
sbag0
(g313
g2
Ntp1276
Rp1277
(dp1278
g317
(lp1279
g0
(g313
g2
Ntp1280
Rp1281
(dp1282
g317
(lp1283
g271
ag0
(g313
g2
Ntp1284
Rp1285
(dp1286
g317
(lp1287
g276
ag0
(g313
g2
Ntp1288
Rp1289
(dp1290
g317
(lp1291
g243
ag0
(g313
g2
Ntp1292
Rp1293
(dp1294
g317
(lp1295
g224
ag0
(g313
g2
Ntp1296
Rp1297
(dp1298
g317
(lp1299
g275
ag0
(g313
g2
Ntp1300
Rp1301
(dp1302
g317
(lp1303
g199
ag0
(g313
g2
Ntp1304
Rp1305
(dp1306
g317
(lp1307
g269
ag274
asg323
F0.7391304347826086
sbasg323
F0.7666666666666666
sbasg323
F0.7692307692307692
sbasg323
F0.7727272727272727
sbasg323
F0.7727272727272727
sbasg323
F0.7727272727272727
sbasg323
F0.7931034482758621
sbag0
(g313
g2
Ntp1308
Rp1309
(dp1310
g317
(lp1311
g0
(g313
g2
Ntp1312
Rp1313
(dp1314
g317
(lp1315
g261
ag0
(g313
g2
Ntp1316
Rp1317
(dp1318
g317
(lp1319
g213
ag0
(g313
g2
Ntp1320
Rp1321
(dp1322
g317
(lp1323
g0
(g313
g2
Ntp1324
Rp1325
(dp1326
g317
(lp1327
g226
ag0
(g313
g2
Ntp1328
Rp1329
(dp1330
g317
(lp1331
g231
ag0
(g313
g2
Ntp1332
Rp1333
(dp1334
g317
(lp1335
g73
ag0
(g313
g2
Ntp1336
Rp1337
(dp1338
g317
(lp1339
g209
ag256
asg323
F0.76
sbasg323
F0.7619047619047619
sbasg323
F0.7692307692307692
sbasg323
F0.7931034482758621
sbag0
(g313
g2
Ntp1340
Rp1341
(dp1342
g317
(lp1343
g0
(g313
g2
Ntp1344
Rp1345
(dp1346
g317
(lp1347
g0
(g313
g2
Ntp1348
Rp1349
(dp1350
g317
(lp1351
g195
ag206
asg323
F0.7714285714285715
sbag0
(g313
g2
Ntp1352
Rp1353
(dp1354
g317
(lp1355
g178
ag0
(g313
g2
Ntp1356
Rp1357
(dp1358
g317
(lp1359
g216
ag228
asg323
F0.7142857142857143
sbasg323
F0.78
sbasg323
F0.78125
sbag0
(g313
g2
Ntp1360
Rp1361
(dp1362
g317
(lp1363
g69
ag0
(g313
g2
Ntp1364
Rp1365
(dp1366
g317
(lp1367
g56
ag0
(g313
g2
Ntp1368
Rp1369
(dp1370
g317
(lp1371
g58
ag100
asg323
F0.7619047619047619
sbasg323
F0.7647058823529411
sbasg323
F0.7857142857142857
sbasg323
F0.7931034482758621
sbasg323
F0.8
sbasg323
F0.8055555555555556
sbasg323
F0.8076923076923077
sbag0
(g313
g2
Ntp1372
Rp1373
(dp1374
g317
(lp1375
g0
(g313
g2
Ntp1376
Rp1377
(dp1378
g317
(lp1379
g257
ag0
(g313
g2
Ntp1380
Rp1381
(dp1382
g317
(lp1383
g0
(g313
g2
Ntp1384
Rp1385
(dp1386
g317
(lp1387
g250
ag0
(g313
g2
Ntp1388
Rp1389
(dp1390
g317
(lp1391
g260
ag0
(g313
g2
Ntp1392
Rp1393
(dp1394
g317
(lp1395
g0
(g313
g2
Ntp1396
Rp1397
(dp1398
g317
(lp1399
g272
ag0
(g313
g2
Ntp1400
Rp1401
(dp1402
g317
(lp1403
g215
ag248
asg323
F0.7
sbasg323
F0.7575757575757576
sbag0
(g313
g2
Ntp1404
Rp1405
(dp1406
g317
(lp1407
g285
ag0
(g313
g2
Ntp1408
Rp1409
(dp1410
g317
(lp1411
g0
(g313
g2
Ntp1412
Rp1413
(dp1414
g317
(lp1415
g225
ag242
asg323
F0.75
sbag0
(g313
g2
Ntp1416
Rp1417
(dp1418
g317
(lp1419
g237
ag0
(g313
g2
Ntp1420
Rp1421
(dp1422
g317
(lp1423
g214
ag0
(g313
g2
Ntp1424
Rp1425
(dp1426
g317
(lp1427
g223
ag245
asg323
F0.7272727272727273
sbasg323
F0.736842105263158
sbasg323
F0.75
sbasg323
F0.75
sbasg323
F0.7619047619047619
sbasg323
F0.7692307692307692
sbasg323
F0.7727272727272727
sbasg323
F0.7837837837837838
sbag0
(g313
g2
Ntp1428
Rp1429
(dp1430
g317
(lp1431
g0
(g313
g2
Ntp1432
Rp1433
(dp1434
g317
(lp1435
g266
ag267
asg323
F0.4666666666666667
sbag0
(g313
g2
Ntp1436
Rp1437
(dp1438
g317
(lp1439
g258
ag0
(g313
g2
Ntp1440
Rp1441
(dp1442
g317
(lp1443
g262
ag268
asg323
F0.7666666666666666
sbasg323
F0.782608695652174
sbasg323
F0.7894736842105263
sbasg323
F0.7894736842105263
sbasg323
F0.7916666666666666
sbag0
(g313
g2
Ntp1444
Rp1445
(dp1446
g317
(lp1447
g189
ag0
(g313
g2
Ntp1448
Rp1449
(dp1450
g317
(lp1451
g238
ag239
asg323
F0.72
sbasg323
F0.8064516129032258
sbasg323
F0.8076923076923077
sbasg323
F0.8076923076923077
sbasg323
F0.8095238095238095
sbasg323
F0.8095238095238095
sbasg323
F0.8125
sbasg323
F0.8125
sbasg323
F0.8125
sbasg323
F0.8125
sbasg323
F0.8125
sbasg323
F0.813953488372093
sbasg323
F0.8153846153846154
sbasg323
F0.8157894736842105
sbasg323
F0.8163265306122449
sbasg323
F0.8181818181818181
sbasg323
F0.8181818181818181
sbasg323
F0.8205128205128205
sbasg323
F0.8214285714285714
sbasg323
F0.8235294117647058
sbasg323
F0.8260869565217391
sbasg323
F0.8260869565217391
sbasg323
F0.8260869565217391
sbasg323
F0.8269230769230769
sbasg323
F0.8275862068965517
sbasg323
F0.8275862068965517
sbasg323
F0.8275862068965517
sbasg323
F0.8275862068965517
sbasg323
F0.8292682926829268
sbasg323
F0.8333333333333334
sbasg323
F0.8333333333333334
sbasg323
F0.8333333333333334
sbasg323
F0.8333333333333334
sbasg323
F0.8333333333333334
sbasg323
F0.8333333333333334
sbasg323
F0.8333333333333334
sbasg323
F0.8333333333333334
sbasg323
F0.8333333333333334
sbasg323
F0.8367346938775511
sbasg323
F0.8378378378378378
sbasg323
F0.8387096774193549
sbasg323
F0.8387096774193549
sbasg323
F0.8387096774193549
sbasg323
F0.84
sbasg323
F0.84
sbasg323
F0.8421052631578947
sbasg323
F0.8421052631578947
sbasg323
F0.8421052631578947
sbasg323
F0.8428571428571429
sbag0
(g313
g2
Ntp1452
Rp1453
(dp1454
g317
(lp1455
g296
ag0
(g313
g2
Ntp1456
Rp1457
(dp1458
g317
(lp1459
g142
ag295
asg323
F0.8333333333333334
sbasg323
F0.84375
sbasg323
F0.84375
sbasg323
F0.8461538461538461
sbasg323
F0.8461538461538461
sbasg323
F0.8461538461538461
sbasg323
F0.8461538461538461
sbasg323
F0.8484848484848485
sbag0
(g313
g2
Ntp1460
Rp1461
(dp1462
g317
(lp1463
g292
ag0
(g313
g2
Ntp1464
Rp1465
(dp1466
g317
(lp1467
g218
ag219
asg323
F0.8461538461538461
sbasg323
F0.8484848484848485
sbasg323
F0.85
sbasg323
F0.8529411764705882
sbasg323
F0.8529411764705882
sbasg323
F0.8571428571428572
sbasg323
F0.8571428571428572
sbasg323
F0.8571428571428572
sbasg323
F0.8571428571428572
sbasg323
F0.8571428571428572
sbasg323
F0.8571428571428572
sbasg323
F0.8611111111111112
sbasg323
F0.8620689655172413
sbasg323
F0.8620689655172413
sbasg323
F0.8636363636363636
sbasg323
F0.8636363636363636
sbasg323
F0.8636363636363636
sbasg323
F0.8648648648648649
sbasg323
F0.8648648648648649
sbasg323
F0.8653846153846154
sbasg323
F0.8666666666666667
sbasg323
F0.8666666666666667
sbasg323
F0.8666666666666667
sbasg323
F0.8666666666666667
sbasg323
F0.868421052631579
sbasg323
F0.868421052631579
sbasg323
F0.8695652173913043
sbasg323
F0.8695652173913043
sbasg323
F0.8709677419354839
sbasg323
F0.8709677419354839
sbasg323
F0.8709677419354839
sbasg323
F0.8709677419354839
sbasg323
F0.8717948717948718
sbasg323
F0.8717948717948718
sbasg323
F0.873015873015873
sbasg323
F0.875
sbasg323
F0.875
sbasg323
F0.875
sbasg323
F0.875
sbasg323
F0.875
sbasg323
F0.8771929824561404
sbasg323
F0.8780487804878049
sbasg323
F0.8780487804878049
sbasg323
F0.8787878787878788
sbasg323
F0.8787878787878788
sbasg323
F0.8787878787878788
sbasg323
F0.8787878787878788
sbasg323
F0.8787878787878788
sbasg323
F0.88
sbasg323
F0.8823529411764706
sbasg323
F0.8823529411764706
sbasg323
F0.8823529411764706
sbasg323
F0.8823529411764706
sbasg323
F0.8837209302325582
sbasg323
F0.8846153846153846
sbasg323
F0.8857142857142857
sbasg323
F0.8873239436619719
sbasg323
F0.8888888888888888
sbasg323
F0.8888888888888888
sbasg323
F0.8888888888888888
sbasg323
F0.8888888888888888
sbasg323
F0.8888888888888888
sbasg323
F0.8888888888888888
sbasg323
F0.8888888888888888
sbag0
(g313
g2
Ntp1468
Rp1469
(dp1470
g317
(lp1471
g0
(g313
g2
Ntp1472
Rp1473
(dp1474
g317
(lp1475
g131
ag0
(g313
g2
Ntp1476
Rp1477
(dp1478
g317
(lp1479
g133
ag0
(g313
g2
Ntp1480
Rp1481
(dp1482
g317
(lp1483
g123
ag0
(g313
g2
Ntp1484
Rp1485
(dp1486
g317
(lp1487
g0
(g313
g2
Ntp1488
Rp1489
(dp1490
g317
(lp1491
g104
ag120
asg323
F0.736842105263158
sbag0
(g313
g2
Ntp1492
Rp1493
(dp1494
g317
(lp1495
g106
ag0
(g313
g2
Ntp1496
Rp1497
(dp1498
g317
(lp1499
g102
ag103
asg323
F0.84
sbasg323
F0.8421052631578947
sbasg323
F0.85
sbasg323
F0.8695652173913043
sbasg323
F0.8709677419354839
sbasg323
F0.8846153846153846
sbag0
(g313
g2
Ntp1500
Rp1501
(dp1502
g317
(lp1503
g95
ag0
(g313
g2
Ntp1504
Rp1505
(dp1506
g317
(lp1507
g130
ag163
asg323
F0.8846153846153846
sbasg323
F0.8888888888888888
sbasg323
F0.8888888888888888
sbasg323
F0.8888888888888888
sbasg323
F0.8928571428571429
sbasg323
F0.8947368421052632
sbasg323
F0.8947368421052632
sbasg323
F0.8947368421052632
sbasg323
F0.8947368421052632
sbasg323
F0.8947368421052632
sbasg323
F0.8947368421052632
sbasg323
F0.8947368421052632
sbasg323
F0.9
sbasg323
F0.9
sbasg323
F0.9
sbasg323
F0.9
sbasg323
F0.9024390243902439
sbasg323
F0.9024390243902439
sbasg323
F0.9024390243902439
sbasg323
F0.9032258064516129
sbag0
(g313
g2
Ntp1508
Rp1509
(dp1510
g317
(lp1511
g117
ag167
asg323
F0.9047619047619048
sbasg323
F0.9047619047619048
sbasg323
F0.90625
sbasg323
F0.90625
sbasg323
F0.90625
sbasg323
F0.90625
sbasg323
F0.9069767441860466
sbasg323
F0.9090909090909091
sbasg323
F0.9090909090909091
sbasg323
F0.9090909090909091
sbasg323
F0.9090909090909091
sbasg323
F0.9090909090909091
sbasg323
F0.9090909090909091
sbasg323
F0.9117647058823529
sbasg323
F0.9117647058823529
sbasg323
F0.9117647058823529
sbasg323
F0.9117647058823529
sbasg323
F0.9130434782608696
sbasg323
F0.9130434782608696
sbasg323
F0.9130434782608696
sbasg323
F0.9142857142857143
sbasg323
F0.9166666666666666
sbasg323
F0.9166666666666666
sbasg323
F0.9166666666666666
sbasg323
F0.9166666666666666
sbasg323
F0.9166666666666666
sbasg323
F0.9175257731958762
sbasg323
F0.92
sbasg323
F0.92
sbasg323
F0.92
sbasg323
F0.9230769230769231
sbasg323
F0.925
sbasg323
F0.9272727272727272
sbasg323
F0.9285714285714286
sbasg323
F0.9310344827586207
sbasg323
F0.9310344827586207
sbasg323
F0.935064935064935
sbasg323
F0.935483870967742
sbasg323
F0.935483870967742
sbasg323
F0.9384615384615385
sbasg323
F0.95
sbasg323
F1.0
sbasg323
F1.0
sbasS'linkage'
p1512
Nsb.