ccopy_reg
_reconstructor
p0
(ccluster.method.hierarchical
HierarchicalClustering
p1
c__builtin__
object
p2
Ntp3
Rp4
(dp5
S'distance'
p6
NsS'_input'
p7
(lp8
S''
p9
aV105
p10
aV1969
p11
aV2046
p12
aVADAMSRIB
p13
aVAFFLICTION
p14
aVAIRAMERICA
p15
aVAIRFORCEONE
p16
aVALEXANDRASPROJECT
p17
aVALEXEMMA
p18
aVALICE
p19
aVALIENNATION
p20
aVALLTHEQUEENSMEN
p21
aVALPHAVILLE
p22
aVANALANSMITHEEFILMBURNHOLLYWOODBURN
p23
aVANASTASIA
p24
aVANDROMEDA
p25
aVANTITRUST
p26
aVARROWSMITH
p27
aVARSENICANDOLDLACE
p28
aVATLANTIS
p29
aVAUSTINPOWERSINTERNATIONALMANOFMYSTERY
p30
aVBAADASSSSS
p31
aVBABESINTOYLAND
p32
aVBABYBOY
p33
aVBADBOYS
p34
aVBADLANDS
p35
aVBANANAS
p36
aVBARBERSHOP
p37
aVBATMAN
p38
aVBATMANMASKOFTHEPHANTASM
p39
aVBATMANMRFREEZESUBZERO
p40
aVBATTLEOFTHEBULGE
p41
aVBEACHES
p42
aVBECKYSHARP
p43
aVBEETHOVENS3RD
p44
aVBIRDY
p45
aVBLACKSABBATH
p46
aVBLANKCHECK
p47
aVBLOODFROMTHEMUMMYSTOMB
p48
aVBREAKERMORANT
p49
aVBUFFALO66
p50
aVBURNUPACLOSEINTENSESUPERFIERCEBATTLE
p51
aVCABINBOY
p52
aVCASTAWAY
p53
aVCASUALTIESOFLOVETHELONGISLANDLOLITASTORY
p54
aVCAVEMAN
p55
aVCHANG
p56
aVCHILDSPLAY2
p57
aVCHILDSPLAY3
p58
aVCIVILIZATION
p59
aVCKY
p60
aVCLANNAD
p61
aVCLASSACTION
p62
aVCLEOPATRA
p63
aVCOCOON
p64
aVCONTRABAND
p65
aVCOQUETTE
p66
aVCUTAWAY
p67
aVDANGEROUSCURVES
p68
aVDANTESPEAK
p69
aVDARKNESS
p70
aVDASTESTAMENTDESDRMABUSE
p71
aVDAVIDHOLZMANSDIARY
p72
aVDAWNOFTHEDEAD
p73
aVDAYLIGHT
p74
aVDEADEND
p75
aVDEATHTRAP
p76
aVDIAMONDHEAD
p77
aVDICK
p78
aVDICKTRACY
p79
aVDILWALEDULHANIYLEJAYENGE
p80
aVDISTANTVOICESSTILLLIVES
p81
aVDIVA
p82
aVDIVINEINTERVENTION
p83
aVDONTMOVE
p84
aVDUEL
p85
aVEDVARDMUNCH
p86
aVELEKTRA
p87
aVENIGMA
p88
aVFETISHES
p89
aVFLIPPER
p90
aVFULLFRONTAL
p91
aVGENTLEMANSAGREEMENT
p92
aVGERONIMOSLASTRAID
p93
aVGETOVERIT
p94
aVGETTYSBURG
p95
aVGHOST
p96
aVGHOSTINTHESHELL2INNOCENCE
p97
aVGHOSTWORLD
p98
aVGINGERSNAPS2UNLEASHED
p99
aVGLORY
p100
aVGO
p101
aVGODZILLAMOTHRAANDKINGGHIDORAHGIANTMONSTERSALLOUTATTACK
p102
aVGOLDDIGGERSOF49
p103
aVGRANDHOTEL
p104
aVGREGORYSGIRL
p105
aVGREMLINS2THENEWBATCH
p106
aVHALLOWEEN
p107
aVHAMLET
p108
aVHAPPYBIRTHDAYWANDAJUNE
p109
aVHARRYPOTTERANDTHECHAMBEROFSECRETS
p110
aVHARRYPOTTERANDTHEPRISONEROFAZKABAN
p111
aVHEAD
p112
aVHEAT
p113
aVHEAVY
p114
aVHEAVYMETAL
p115
aVHESAWOMANSHESAMAN
p116
aVHIGHSCHOOL
p117
aVHOLLYWOOD
p118
aVHOLOCAUST
p119
aVHOMERUN
p120
aVHONEY
p121
aVHOOPER
p122
aVHOUSEONHAUNTEDHILL
p123
aVHOUSEPARTY
p124
aVHULLABALOO
p125
aVHUMANNATURE
p126
aVIFIWEREARICHMAN
p127
aVINTHETIMEOFTHEBUTTERFLIES
p128
aVINTIMACY
p129
aVIRIS
p130
aVIROBOT
p131
aVITSALLABOUTLOVE
p132
aVITSAWONDERFULLIFE
p133
aVITTHETERRORFROMBEYONDSPACE
p134
aVJACOBSLADDER
p135
aVJAMMINTHEBLUES
p136
aVJNSSONLIGANSPELARHGT
p137
aVJOANOFARC
p138
aVJOHNCARPENTERSTHEFOG
p139
aVJOHNHENRY
p140
aVJUAREZ
p141
aVJUDGMENTNIGHT
p142
aVKAHINTOHOGAA
p143
aVKINGOFKINGS
p144
aVKINGRAT
p145
aVKNOTSLANDINGBACKTOTHECULDESAC
p146
aVKOLCHAKTHENIGHTSTALKER
p147
aVLAGAANONCEUPONATIMEININDIA
p148
aVLAMBADA
p149
aVLAYERCAKE
p150
aVLESBONSDBARRAS
p151
aVLESDIABOLIQUES
p152
aVLIFEISSWEET
p153
aVLOOKATME
p154
aVLOOKWHOSTALKINGTOO
p155
aVMADAMEX
p156
aVMADIGANSMILLIONS
p157
aVMAJORLEAGUE
p158
aVMANHATTANPROJECT
p159
aVMARTHAMEETFRANKDANIELANDLAURENCE
p160
aVMARVINSROOM
p161
aVMASK
p162
aVMAX
p163
aVMENINBLACK
p164
aVMERLIN
p165
aVMIRACLE
p166
aVMIRACLEMILE
p167
aVMOBILESUITGUNDAMSEEDSPECIALEDITION
p168
aVMRMRSBRIDGE
p169
aVMURIELSWEDDING
p170
aVMYFAMILY
p171
aVNIGHTOFTHELIVINGDEAD
p172
aVNINETEENEIGHTYFOUR
p173
aVNORETREATNOSURRENDER
p174
aVNORMAL
p175
aVNOWHERE
p176
aVOUTCOLD
p177
aVPANDEMONIUM
p178
aVPANDORASBOX
p179
aVPAPERMOON
p180
aVPARTYGIRL
p181
aVPAYITFORWARD
p182
aVPEEPINGTOM
p183
aVPENNTELLERGETKILLED
p184
aVPHANTOMOFTHEOPERA
p185
aVPHILADELPHIA
p186
aVPHOENIX
p187
aVPILGRIM
p188
aVPINKY
p189
aVPOINTOFNORETURN
p190
aVPOKMONLEGENDCOMESTOLIFE
p191
aVPOORLITTLERICHGIRL
p192
aVPOPIMPOP
p193
aVPOSSE
p194
aVPRIMARY
p195
aVPT109
p196
aVQUATERMASSANDTHEPIT
p197
aVQUEISSOCOMPANHEIRO
p198
aVRABBITTEST
p199
aVRADIOFLYER
p200
aVRAMBOFIRSTBLOODPARTII
p201
aVRASHOMON
p202
aVRATATOUILLE
p203
aVREMOWILLIAMSTHEADVENTUREBEGINS
p204
aVREVENGEOFTHENERDSIVNERDSINLOVE
p205
aVRICHARDIII
p206
aVRIKISHI
p207
aVROADHOUSE
p208
aVROCKNROLLHIGHSCHOOL
p209
aVROOMSERVICE
p210
aVROPE
p211
aVROYALSPACEFORCETHEWINGSOFHONNEAMISE
p212
aVSAW
p213
aVSCANDAL
p214
aVSCARFACE
p215
aVSCOOBYDOO
p216
aVSEQUENCE
p217
aVSEXTHEANNABELCHONGSTORY
p218
aVSHATRANJKEKHILADI
p219
aVSHERMANSMARCH
p220
aVSHESALLTHAT
p221
aVSHIPOFFOOLS
p222
aVSHIVERS
p223
aVSIGNS
p224
aVSLEEPER
p225
aVSLEEPOVER
p226
aVSLEUTH
p227
aVSMASHUPTHESTORYOFAWOMAN
p228
aVSMOKESIGNALS
p229
aVSNATCH
p230
aVSOLARIS
p231
aVSPEED
p232
aVSPEED2CRUISECONTROL
p233
aVSPHERE
p234
aVSTARTUPCOM
p235
aVSTARWARSEPISODEIVANEWHOPE
p236
aVSTRATEGICAIRCOMMAND
p237
aVSWEPTAWAY
p238
aVTAEGUKGI
p239
aVTALESFROMTHECRYPT
p240
aVTENCHIMUYO
p241
aVTEQUILASUNRISE
p242
aVTHEADVENTURESOFROBINHOOD
p243
aVTHEBROKENHEARTSCLUBAROMANTICCOMEDY
p244
aVTHEBROTHERSKARAMAZOV
p245
aVTHECRUCIBLE
p246
aVTHECRUISE
p247
aVTHEDECAMERON
p248
aVTHEFACEBEHINDTHEMASK
p249
aVTHEFALLOFTHEHOUSEOFUSHER
p250
aVTHEFIXER
p251
aVTHEFOXANDTHEHOUND
p252
aVTHEFRONTIER
p253
aVTHEGENERAL
p254
aVTHEGOSPELOFJOHN
p255
aVTHEGREATTRAINROBBERY
p256
aVTHEGREATWALTZ
p257
aVTHEGREENBERETS
p258
aVTHEHOBBIT
p259
aVTHEHURRICANE
p260
aVTHEINFORMER
p261
aVTHEKISS
p262
aVTHELADYVANISHES
p263
aVTHELIFEANDDEATHOF9413AHOLLYWOODEXTRA
p264
aVTHEMOTHER
p265
aVTHENANNY
p266
aVTHEOILTHEBABYANDTHETRANSYLVANIANS
p267
aVTHEPIEDPIPER
p268
aVTHEPLEASUREGARDEN
p269
aVTHEPORTRAITOFALADY
p270
aVTHEPOWERANDTHEGLORY
p271
aVTHEPREACHERSWIFE
p272
aVTHEPRINCESSDIARIES2ROYALENGAGEMENT
p273
aVTHERESSOMETHINGABOUTMARY
p274
aVTHERIVER
p275
aVTHERULESOFATTRACTION
p276
aVTHERUNNINGJUMPINGSTANDINGSTILLFILM
p277
aVTHERUSSIANSARECOMINGTHERUSSIANSARECOMING
p278
aVTHESEAHAWK
p279
aVTHESHINING
p280
aVTHESTAR
p281
aVTHIRTEEN
p282
aVTIERRA
p283
aVTIOKYPROPOPELKUDREIHASELNSSEFRASCHENBRDEL
p284
aVTOMVIV
p285
aVTOPGUN
p286
aVTOPHAT
p287
aVTOTALECLIPSE
p288
aVTRAFFIC
p289
aVTREKKIES
p290
aVTRIBUTE
p291
aVTRICK
p292
aVTRULYMADLYDEEPLY
p293
aVTWISTED
p294
aVTWISTER
p295
aVULEESGOLD
p296
aVUNFAITHFUL
p297
aVUNGEKSSTSOLLMANNICHTSCHLAFENGEHN
p298
aVVERYNICEVERYNICE
p299
aVVONRYANSEXPRESS
p300
aVWHATABOUTBOB
p301
aVWHATDREAMSMAYCOME
p302
aVWHISKYGALORE
p303
aVWHISTLE
p304
aVWISHMASTER
p305
aVWIZARDS
p306
aVYOUNGTRLESS
p307
aVZHOUYUSTRAIN
p308
asS'num_processes'
p309
I1
sS'_HierarchicalClustering__cluster_created'
p310
I01
sS'_data'
p311
(lp312
g0
(ccluster.cluster
Cluster
p313
g2
Ntp314
Rp315
(dp316
S'_Cluster__items'
p317
(lp318
g9
ag0
(g313
g2
Ntp319
Rp320
(dp321
g317
(lp322
g284
ag0
(g313
g2
Ntp323
Rp324
(dp325
g317
(lp326
g102
ag0
(g313
g2
Ntp327
Rp328
(dp329
g317
(lp330
g0
(g313
g2
Ntp331
Rp332
(dp333
g317
(lp334
g12
ag50
asS'_Cluster__level'
p335
F0.9375
sbag0
(g313
g2
Ntp336
Rp337
(dp338
g317
(lp339
g298
ag0
(g313
g2
Ntp340
Rp341
(dp342
g317
(lp343
g198
ag0
(g313
g2
Ntp344
Rp345
(dp346
g317
(lp347
g109
ag0
(g313
g2
Ntp348
Rp349
(dp350
g317
(lp351
g80
ag0
(g313
g2
Ntp352
Rp353
(dp354
g317
(lp355
g143
ag0
(g313
g2
Ntp356
Rp357
(dp358
g317
(lp359
g0
(g313
g2
Ntp360
Rp361
(dp362
g317
(lp363
g201
ag0
(g313
g2
Ntp364
Rp365
(dp366
g317
(lp367
g206
ag207
asg335
F0.8333333333333334
sbasg335
F0.90625
sbag0
(g313
g2
Ntp368
Rp369
(dp370
g317
(lp371
g239
ag0
(g313
g2
Ntp372
Rp373
(dp374
g317
(lp375
g0
(g313
g2
Ntp376
Rp377
(dp378
g317
(lp379
g196
ag0
(g313
g2
Ntp380
Rp381
(dp382
g317
(lp383
g10
ag11
asg335
F0.9
sbasg335
F0.9166666666666666
sbag0
(g313
g2
Ntp384
Rp385
(dp386
g317
(lp387
g241
ag0
(g313
g2
Ntp388
Rp389
(dp390
g317
(lp391
g184
ag0
(g313
g2
Ntp392
Rp393
(dp394
g317
(lp395
g146
ag0
(g313
g2
Ntp396
Rp397
(dp398
g317
(lp399
g137
ag0
(g313
g2
Ntp400
Rp401
(dp402
g317
(lp403
g99
ag0
(g313
g2
Ntp404
Rp405
(dp406
g317
(lp407
g49
ag0
(g313
g2
Ntp408
Rp409
(dp410
g317
(lp411
g297
ag0
(g313
g2
Ntp412
Rp413
(dp414
g317
(lp415
g293
ag0
(g313
g2
Ntp416
Rp417
(dp418
g317
(lp419
g182
ag0
(g313
g2
Ntp420
Rp421
(dp422
g317
(lp423
g148
ag0
(g313
g2
Ntp424
Rp425
(dp426
g317
(lp427
g213
ag0
(g313
g2
Ntp428
Rp429
(dp430
g317
(lp431
g212
ag0
(g313
g2
Ntp432
Rp433
(dp434
g317
(lp435
g190
ag0
(g313
g2
Ntp436
Rp437
(dp438
g317
(lp439
g71
ag0
(g313
g2
Ntp440
Rp441
(dp442
g317
(lp443
g44
ag0
(g313
g2
Ntp444
Rp445
(dp446
g317
(lp447
g134
ag0
(g313
g2
Ntp448
Rp449
(dp450
g317
(lp451
g168
ag0
(g313
g2
Ntp452
Rp453
(dp454
g317
(lp455
g171
ag0
(g313
g2
Ntp456
Rp457
(dp458
g317
(lp459
g141
ag0
(g313
g2
Ntp460
Rp461
(dp462
g317
(lp463
g0
(g313
g2
Ntp464
Rp465
(dp466
g317
(lp467
g187
ag0
(g313
g2
Ntp468
Rp469
(dp470
g317
(lp471
g178
ag179
asg335
F0.8181818181818181
sbasg335
F0.9
sbag0
(g313
g2
Ntp472
Rp473
(dp474
g317
(lp475
g0
(g313
g2
Ntp476
Rp477
(dp478
g317
(lp479
g93
ag308
asg335
F0.9
sbag0
(g313
g2
Ntp480
Rp481
(dp482
g317
(lp483
g0
(g313
g2
Ntp484
Rp485
(dp486
g317
(lp487
g101
ag103
asg335
F0.8947368421052632
sbag0
(g313
g2
Ntp488
Rp489
(dp490
g317
(lp491
g186
ag0
(g313
g2
Ntp492
Rp493
(dp494
g317
(lp495
g169
ag0
(g313
g2
Ntp496
Rp497
(dp498
g317
(lp499
g160
ag0
(g313
g2
Ntp500
Rp501
(dp502
g317
(lp503
g147
ag0
(g313
g2
Ntp504
Rp505
(dp506
g317
(lp507
g138
ag0
(g313
g2
Ntp508
Rp509
(dp510
g317
(lp511
g135
ag0
(g313
g2
Ntp512
Rp513
(dp514
g317
(lp515
g273
ag0
(g313
g2
Ntp516
Rp517
(dp518
g317
(lp519
g0
(g313
g2
Ntp520
Rp521
(dp522
g317
(lp523
g151
ag152
asg335
F0.8571428571428572
sbag0
(g313
g2
Ntp524
Rp525
(dp526
g317
(lp527
g219
ag0
(g313
g2
Ntp528
Rp529
(dp530
g317
(lp531
g191
ag0
(g313
g2
Ntp532
Rp533
(dp534
g317
(lp535
g125
ag0
(g313
g2
Ntp536
Rp537
(dp538
g317
(lp539
g92
ag0
(g313
g2
Ntp540
Rp541
(dp542
g317
(lp543
g0
(g313
g2
Ntp544
Rp545
(dp546
g317
(lp547
g0
(g313
g2
Ntp548
Rp549
(dp550
g317
(lp551
g84
ag0
(g313
g2
Ntp552
Rp553
(dp554
g317
(lp555
g132
ag133
asg335
F0.8387096774193549
sbasg335
F0.875
sbag0
(g313
g2
Ntp556
Rp557
(dp558
g317
(lp559
g0
(g313
g2
Ntp560
Rp561
(dp562
g317
(lp563
g301
ag302
asg335
F0.8620689655172413
sbag0
(g313
g2
Ntp564
Rp565
(dp566
g317
(lp567
g0
(g313
g2
Ntp568
Rp569
(dp570
g317
(lp571
g166
ag167
asg335
F0.3076923076923077
sbag0
(g313
g2
Ntp572
Rp573
(dp574
g317
(lp575
g303
ag304
asg335
F0.7222222222222222
sbasg335
F0.875
sbasg335
F0.88
sbasg335
F0.8928571428571429
sbag0
(g313
g2
Ntp576
Rp577
(dp578
g317
(lp579
g0
(g313
g2
Ntp580
Rp581
(dp582
g317
(lp583
g235
ag236
asg335
F0.8857142857142857
sbag0
(g313
g2
Ntp584
Rp585
(dp586
g317
(lp587
g0
(g313
g2
Ntp588
Rp589
(dp590
g317
(lp591
g154
ag155
asg335
F0.8461538461538461
sbag0
(g313
g2
Ntp592
Rp593
(dp594
g317
(lp595
g0
(g313
g2
Ntp596
Rp597
(dp598
g317
(lp599
g177
ag296
asg335
F0.8235294117647058
sbag0
(g313
g2
Ntp600
Rp601
(dp602
g317
(lp603
g173
ag0
(g313
g2
Ntp604
Rp605
(dp606
g317
(lp607
g153
ag0
(g313
g2
Ntp608
Rp609
(dp610
g317
(lp611
g126
ag0
(g313
g2
Ntp612
Rp613
(dp614
g317
(lp615
g86
ag0
(g313
g2
Ntp616
Rp617
(dp618
g317
(lp619
g81
ag0
(g313
g2
Ntp620
Rp621
(dp622
g317
(lp623
g43
ag0
(g313
g2
Ntp624
Rp625
(dp626
g317
(lp627
g30
ag0
(g313
g2
Ntp628
Rp629
(dp630
g317
(lp631
g0
(g313
g2
Ntp632
Rp633
(dp634
g317
(lp635
g0
(g313
g2
Ntp636
Rp637
(dp638
g317
(lp639
g24
ag25
asg335
F0.8421052631578947
sbag0
(g313
g2
Ntp640
Rp641
(dp642
g317
(lp643
g149
ag150
asg335
F0.8888888888888888
sbasg335
F0.8888888888888888
sbag0
(g313
g2
Ntp644
Rp645
(dp646
g317
(lp647
g0
(g313
g2
Ntp648
Rp649
(dp650
g317
(lp651
g54
ag218
asg335
F0.8833333333333333
sbag0
(g313
g2
Ntp652
Rp653
(dp654
g317
(lp655
g0
(g313
g2
Ntp656
Rp657
(dp658
g317
(lp659
g15
ag16
asg335
F0.8636363636363636
sbag0
(g313
g2
Ntp660
Rp661
(dp662
g317
(lp663
g0
(g313
g2
Ntp664
Rp665
(dp666
g317
(lp667
g74
ag142
asg335
F0.8095238095238095
sbag0
(g313
g2
Ntp668
Rp669
(dp670
g317
(lp671
g0
(g313
g2
Ntp672
Rp673
(dp674
g317
(lp675
g117
ag209
asg335
F0.5652173913043479
sbag0
(g313
g2
Ntp676
Rp677
(dp678
g317
(lp679
g0
(g313
g2
Ntp680
Rp681
(dp682
g317
(lp683
g57
ag58
asg335
F0.375
sbag0
(g313
g2
Ntp684
Rp685
(dp686
g317
(lp687
g216
ag0
(g313
g2
Ntp688
Rp689
(dp690
g317
(lp691
g205
ag0
(g313
g2
Ntp692
Rp693
(dp694
g317
(lp695
g200
ag0
(g313
g2
Ntp696
Rp697
(dp698
g317
(lp699
g174
ag0
(g313
g2
Ntp700
Rp701
(dp702
g317
(lp703
g37
ag0
(g313
g2
Ntp704
Rp705
(dp706
g317
(lp707
g27
ag0
(g313
g2
Ntp708
Rp709
(dp710
g317
(lp711
g244
ag0
(g313
g2
Ntp712
Rp713
(dp714
g317
(lp715
g72
ag0
(g313
g2
Ntp716
Rp717
(dp718
g317
(lp719
g0
(g313
g2
Ntp720
Rp721
(dp722
g317
(lp723
g204
ag243
asg335
F0.7916666666666666
sbag0
(g313
g2
Ntp724
Rp725
(dp726
g317
(lp727
g277
ag0
(g313
g2
Ntp728
Rp729
(dp730
g317
(lp731
g0
(g313
g2
Ntp732
Rp733
(dp734
g317
(lp735
g300
ag0
(g313
g2
Ntp736
Rp737
(dp738
g317
(lp739
g68
ag0
(g313
g2
Ntp740
Rp741
(dp742
g317
(lp743
g70
ag307
asg335
F0.85
sbasg335
F0.875
sbasg335
F0.875
sbag0
(g313
g2
Ntp744
Rp745
(dp746
g317
(lp747
g306
ag0
(g313
g2
Ntp748
Rp749
(dp750
g317
(lp751
g183
ag0
(g313
g2
Ntp752
Rp753
(dp754
g317
(lp755
g56
ag0
(g313
g2
Ntp756
Rp757
(dp758
g317
(lp759
g13
ag0
(g313
g2
Ntp760
Rp761
(dp762
g317
(lp763
g0
(g313
g2
Ntp764
Rp765
(dp766
g317
(lp767
g65
ag237
asg335
F0.8620689655172413
sbag0
(g313
g2
Ntp768
Rp769
(dp770
g317
(lp771
g170
ag0
(g313
g2
Ntp772
Rp773
(dp774
g317
(lp775
g51
ag0
(g313
g2
Ntp776
Rp777
(dp778
g317
(lp779
g0
(g313
g2
Ntp780
Rp781
(dp782
g317
(lp783
g0
(g313
g2
Ntp784
Rp785
(dp786
g317
(lp787
g97
ag0
(g313
g2
Ntp788
Rp789
(dp790
g317
(lp791
g96
ag98
asg335
F0.6428571428571428
sbasg335
F0.8275862068965517
sbag0
(g313
g2
Ntp792
Rp793
(dp794
g317
(lp795
g94
ag95
asg335
F0.85
sbasg335
F0.875
sbag0
(g313
g2
Ntp796
Rp797
(dp798
g317
(lp799
g0
(g313
g2
Ntp800
Rp801
(dp802
g317
(lp803
g46
ag0
(g313
g2
Ntp804
Rp805
(dp806
g317
(lp807
g47
ag164
asg335
F0.8571428571428572
sbasg335
F0.8695652173913043
sbag0
(g313
g2
Ntp808
Rp809
(dp810
g317
(lp811
g0
(g313
g2
Ntp812
Rp813
(dp814
g317
(lp815
g193
ag194
asg335
F0.8666666666666667
sbag0
(g313
g2
Ntp816
Rp817
(dp818
g317
(lp819
g0
(g313
g2
Ntp820
Rp821
(dp822
g317
(lp823
g139
ag140
asg335
F0.8620689655172413
sbag0
(g313
g2
Ntp824
Rp825
(dp826
g317
(lp827
g0
(g313
g2
Ntp828
Rp829
(dp830
g317
(lp831
g116
ag228
asg335
F0.8108108108108107
sbag0
(g313
g2
Ntp832
Rp833
(dp834
g317
(lp835
g278
ag0
(g313
g2
Ntp836
Rp837
(dp838
g317
(lp839
g202
ag0
(g313
g2
Ntp840
Rp841
(dp842
g317
(lp843
g158
ag0
(g313
g2
Ntp844
Rp845
(dp846
g317
(lp847
g157
ag0
(g313
g2
Ntp848
Rp849
(dp850
g317
(lp851
g85
ag0
(g313
g2
Ntp852
Rp853
(dp854
g317
(lp855
g69
ag0
(g313
g2
Ntp856
Rp857
(dp858
g317
(lp859
g66
ag0
(g313
g2
Ntp860
Rp861
(dp862
g317
(lp863
g0
(g313
g2
Ntp864
Rp865
(dp866
g317
(lp867
g290
ag0
(g313
g2
Ntp868
Rp869
(dp870
g317
(lp871
g289
ag0
(g313
g2
Ntp872
Rp873
(dp874
g317
(lp875
g129
ag0
(g313
g2
Ntp876
Rp877
(dp878
g317
(lp879
g82
ag0
(g313
g2
Ntp880
Rp881
(dp882
g317
(lp883
g291
ag0
(g313
g2
Ntp884
Rp885
(dp886
g317
(lp887
g292
ag0
(g313
g2
Ntp888
Rp889
(dp890
g317
(lp891
g78
ag79
asg335
F0.6923076923076923
sbasg335
F0.7
sbasg335
F0.7692307692307692
sbasg335
F0.8
sbasg335
F0.8333333333333334
sbasg335
F0.8571428571428572
sbasg335
F0.8666666666666667
sbag0
(g313
g2
Ntp892
Rp893
(dp894
g317
(lp895
g161
ag0
(g313
g2
Ntp896
Rp897
(dp898
g317
(lp899
g104
ag0
(g313
g2
Ntp900
Rp901
(dp902
g317
(lp903
g28
ag0
(g313
g2
Ntp904
Rp905
(dp906
g317
(lp907
g48
ag0
(g313
g2
Ntp908
Rp909
(dp910
g317
(lp911
g0
(g313
g2
Ntp912
Rp913
(dp914
g317
(lp915
g175
ag0
(g313
g2
Ntp916
Rp917
(dp918
g317
(lp919
g217
ag0
(g313
g2
Ntp920
Rp921
(dp922
g317
(lp923
g214
ag215
asg335
F0.8125
sbasg335
F0.8235294117647058
sbasg335
F0.8666666666666667
sbag0
(g313
g2
Ntp924
Rp925
(dp926
g317
(lp927
g0
(g313
g2
Ntp928
Rp929
(dp930
g317
(lp931
g88
ag0
(g313
g2
Ntp932
Rp933
(dp934
g317
(lp935
g63
ag87
asg335
F0.8235294117647058
sbasg335
F0.8666666666666667
sbag0
(g313
g2
Ntp936
Rp937
(dp938
g317
(lp939
g0
(g313
g2
Ntp940
Rp941
(dp942
g317
(lp943
g127
ag0
(g313
g2
Ntp944
Rp945
(dp946
g317
(lp947
g0
(g313
g2
Ntp948
Rp949
(dp950
g317
(lp951
g128
ag136
asg335
F0.8378378378378378
sbag0
(g313
g2
Ntp952
Rp953
(dp954
g317
(lp955
g185
ag0
(g313
g2
Ntp956
Rp957
(dp958
g317
(lp959
g41
ag0
(g313
g2
Ntp960
Rp961
(dp962
g317
(lp963
g55
ag0
(g313
g2
Ntp964
Rp965
(dp966
g317
(lp967
g39
ag0
(g313
g2
Ntp968
Rp969
(dp970
g317
(lp971
g38
ag40
asg335
F0.76
sbasg335
F0.7777777777777778
sbasg335
F0.7857142857142857
sbasg335
F0.8378378378378378
sbasg335
F0.8421052631578947
sbasg335
F0.8461538461538461
sbasg335
F0.8636363636363636
sbag0
(g313
g2
Ntp972
Rp973
(dp974
g317
(lp975
g0
(g313
g2
Ntp976
Rp977
(dp978
g317
(lp979
g0
(g313
g2
Ntp980
Rp981
(dp982
g317
(lp983
g0
(g313
g2
Ntp984
Rp985
(dp986
g317
(lp987
g224
ag229
asg335
F0.7647058823529411
sbag0
(g313
g2
Ntp988
Rp989
(dp990
g317
(lp991
g222
ag223
asg335
F0.7777777777777778
sbasg335
F0.8571428571428572
sbag0
(g313
g2
Ntp992
Rp993
(dp994
g317
(lp995
g0
(g313
g2
Ntp996
Rp997
(dp998
g317
(lp999
g131
ag0
(g313
g2
Ntp1000
Rp1001
(dp1002
g317
(lp1003
g130
ag231
asg335
F0.75
sbasg335
F0.8333333333333334
sbag0
(g313
g2
Ntp1004
Rp1005
(dp1006
g317
(lp1007
g0
(g313
g2
Ntp1008
Rp1009
(dp1010
g317
(lp1011
g264
ag0
(g313
g2
Ntp1012
Rp1013
(dp1014
g317
(lp1015
g23
ag118
asg335
F0.825
sbasg335
F0.8333333333333334
sbag0
(g313
g2
Ntp1016
Rp1017
(dp1018
g317
(lp1019
g119
ag0
(g313
g2
Ntp1020
Rp1021
(dp1022
g317
(lp1023
g26
ag29
asg335
F0.8333333333333334
sbasg335
F0.8421052631578947
sbasg335
F0.8421052631578947
sbasg335
F0.8571428571428572
sbasg335
F0.8571428571428572
sbag0
(g313
g2
Ntp1024
Rp1025
(dp1026
g317
(lp1027
g0
(g313
g2
Ntp1028
Rp1029
(dp1030
g317
(lp1031
g18
ag0
(g313
g2
Ntp1032
Rp1033
(dp1034
g317
(lp1035
g17
ag159
asg335
F0.7666666666666666
sbasg335
F0.84
sbag0
(g313
g2
Ntp1036
Rp1037
(dp1038
g317
(lp1039
g165
ag0
(g313
g2
Ntp1040
Rp1041
(dp1042
g317
(lp1043
g197
ag0
(g313
g2
Ntp1044
Rp1045
(dp1046
g317
(lp1047
g299
ag0
(g313
g2
Ntp1048
Rp1049
(dp1050
g317
(lp1051
g288
ag0
(g313
g2
Ntp1052
Rp1053
(dp1054
g317
(lp1055
g91
ag0
(g313
g2
Ntp1056
Rp1057
(dp1058
g317
(lp1059
g0
(g313
g2
Ntp1060
Rp1061
(dp1062
g317
(lp1063
g110
ag111
asg335
F0.6346153846153846
sbag0
(g313
g2
Ntp1064
Rp1065
(dp1066
g317
(lp1067
g0
(g313
g2
Ntp1068
Rp1069
(dp1070
g317
(lp1071
g188
ag0
(g313
g2
Ntp1072
Rp1073
(dp1074
g317
(lp1075
g45
ag0
(g313
g2
Ntp1076
Rp1077
(dp1078
g317
(lp1079
g0
(g313
g2
Ntp1080
Rp1081
(dp1082
g317
(lp1083
g60
ag189
asg335
F0.8
sbag0
(g313
g2
Ntp1084
Rp1085
(dp1086
g317
(lp1087
g31
ag0
(g313
g2
Ntp1088
Rp1089
(dp1090
g317
(lp1091
g0
(g313
g2
Ntp1092
Rp1093
(dp1094
g317
(lp1095
g238
ag0
(g313
g2
Ntp1096
Rp1097
(dp1098
g317
(lp1099
g53
ag67
asg335
F0.5384615384615384
sbasg335
F0.6666666666666667
sbag0
(g313
g2
Ntp1100
Rp1101
(dp1102
g317
(lp1103
g32
ag0
(g313
g2
Ntp1104
Rp1105
(dp1106
g317
(lp1107
g52
ag0
(g313
g2
Ntp1108
Rp1109
(dp1110
g317
(lp1111
g36
ag0
(g313
g2
Ntp1112
Rp1113
(dp1114
g317
(lp1115
g33
ag0
(g313
g2
Ntp1116
Rp1117
(dp1118
g317
(lp1119
g34
ag35
asg335
F0.7333333333333334
sbasg335
F0.8
sbasg335
F0.8
sbasg335
F0.8125
sbasg335
F0.8181818181818181
sbasg335
F0.8235294117647058
sbasg335
F0.8333333333333334
sbasg335
F0.8333333333333334
sbasg335
F0.8571428571428572
sbasg335
F0.8571428571428572
sbag0
(g313
g2
Ntp1120
Rp1121
(dp1122
g317
(lp1123
g0
(g313
g2
Ntp1124
Rp1125
(dp1126
g317
(lp1127
g220
ag0
(g313
g2
Ntp1128
Rp1129
(dp1130
g317
(lp1131
g106
ag230
asg335
F0.8461538461538461
sbasg335
F0.85
sbag0
(g313
g2
Ntp1132
Rp1133
(dp1134
g317
(lp1135
g0
(g313
g2
Ntp1136
Rp1137
(dp1138
g317
(lp1139
g0
(g313
g2
Ntp1140
Rp1141
(dp1142
g317
(lp1143
g176
ag234
asg335
F0.6923076923076923
sbag0
(g313
g2
Ntp1144
Rp1145
(dp1146
g317
(lp1147
g232
ag233
asg335
F0.782608695652174
sbasg335
F0.8461538461538461
sbag0
(g313
g2
Ntp1148
Rp1149
(dp1150
g317
(lp1151
g0
(g313
g2
Ntp1152
Rp1153
(dp1154
g317
(lp1155
g269
ag0
(g313
g2
Ntp1156
Rp1157
(dp1158
g317
(lp1159
g282
ag0
(g313
g2
Ntp1160
Rp1161
(dp1162
g317
(lp1163
g21
ag107
asg335
F0.8333333333333334
sbasg335
F0.8333333333333334
sbasg335
F0.84
sbag0
(g313
g2
Ntp1164
Rp1165
(dp1166
g317
(lp1167
g285
ag0
(g313
g2
Ntp1168
Rp1169
(dp1170
g317
(lp1171
g195
ag0
(g313
g2
Ntp1172
Rp1173
(dp1174
g317
(lp1175
g120
ag0
(g313
g2
Ntp1176
Rp1177
(dp1178
g317
(lp1179
g0
(g313
g2
Ntp1180
Rp1181
(dp1182
g317
(lp1183
g105
ag0
(g313
g2
Ntp1184
Rp1185
(dp1186
g317
(lp1187
g181
ag192
asg335
F0.8076923076923077
sbasg335
F0.8095238095238095
sbag0
(g313
g2
Ntp1188
Rp1189
(dp1190
g317
(lp1191
g199
ag0
(g313
g2
Ntp1192
Rp1193
(dp1194
g317
(lp1195
g274
ag0
(g313
g2
Ntp1196
Rp1197
(dp1198
g317
(lp1199
g0
(g313
g2
Ntp1200
Rp1201
(dp1202
g317
(lp1203
g240
ag0
(g313
g2
Ntp1204
Rp1205
(dp1206
g317
(lp1207
g61
ag0
(g313
g2
Ntp1208
Rp1209
(dp1210
g317
(lp1211
g255
ag0
(g313
g2
Ntp1212
Rp1213
(dp1214
g317
(lp1215
g0
(g313
g2
Ntp1216
Rp1217
(dp1218
g317
(lp1219
g0
(g313
g2
Ntp1220
Rp1221
(dp1222
g317
(lp1223
g0
(g313
g2
Ntp1224
Rp1225
(dp1226
g317
(lp1227
g90
ag122
asg335
F0.7857142857142857
sbag0
(g313
g2
Ntp1228
Rp1229
(dp1230
g317
(lp1231
g227
ag0
(g313
g2
Ntp1232
Rp1233
(dp1234
g317
(lp1235
g225
ag226
asg335
F0.46153846153846156
sbasg335
F0.7857142857142857
sbasg335
F0.7857142857142857
sbag0
(g313
g2
Ntp1236
Rp1237
(dp1238
g317
(lp1239
g0
(g313
g2
Ntp1240
Rp1241
(dp1242
g317
(lp1243
g162
ag0
(g313
g2
Ntp1244
Rp1245
(dp1246
g317
(lp1247
g156
ag163
asg335
F0.7272727272727273
sbasg335
F0.7777777777777778
sbag0
(g313
g2
Ntp1248
Rp1249
(dp1250
g317
(lp1251
g283
ag0
(g313
g2
Ntp1252
Rp1253
(dp1254
g317
(lp1255
g272
ag0
(g313
g2
Ntp1256
Rp1257
(dp1258
g317
(lp1259
g267
ag0
(g313
g2
Ntp1260
Rp1261
(dp1262
g317
(lp1263
g270
ag0
(g313
g2
Ntp1264
Rp1265
(dp1266
g317
(lp1267
g248
ag0
(g313
g2
Ntp1268
Rp1269
(dp1270
g317
(lp1271
g242
ag0
(g313
g2
Ntp1272
Rp1273
(dp1274
g317
(lp1275
g254
ag0
(g313
g2
Ntp1276
Rp1277
(dp1278
g317
(lp1279
g0
(g313
g2
Ntp1280
Rp1281
(dp1282
g317
(lp1283
g42
ag0
(g313
g2
Ntp1284
Rp1285
(dp1286
g317
(lp1287
g89
ag263
asg335
F0.7727272727272727
sbasg335
F0.8125
sbag0
(g313
g2
Ntp1288
Rp1289
(dp1290
g317
(lp1291
g0
(g313
g2
Ntp1292
Rp1293
(dp1294
g317
(lp1295
g305
ag0
(g313
g2
Ntp1296
Rp1297
(dp1298
g317
(lp1299
g294
ag295
asg335
F0.5
sbasg335
F0.6875
sbag0
(g313
g2
Ntp1300
Rp1301
(dp1302
g317
(lp1303
g266
ag0
(g313
g2
Ntp1304
Rp1305
(dp1306
g317
(lp1307
g0
(g313
g2
Ntp1308
Rp1309
(dp1310
g317
(lp1311
g260
ag0
(g313
g2
Ntp1312
Rp1313
(dp1314
g317
(lp1315
g246
ag247
asg335
F0.5882352941176471
sbasg335
F0.8095238095238095
sbag0
(g313
g2
Ntp1316
Rp1317
(dp1318
g317
(lp1319
g0
(g313
g2
Ntp1320
Rp1321
(dp1322
g317
(lp1323
g258
ag0
(g313
g2
Ntp1324
Rp1325
(dp1326
g317
(lp1327
g256
ag257
asg335
F0.7241379310344828
sbasg335
F0.76
sbag0
(g313
g2
Ntp1328
Rp1329
(dp1330
g317
(lp1331
g262
ag0
(g313
g2
Ntp1332
Rp1333
(dp1334
g317
(lp1335
g259
ag0
(g313
g2
Ntp1336
Rp1337
(dp1338
g317
(lp1339
g249
ag0
(g313
g2
Ntp1340
Rp1341
(dp1342
g317
(lp1343
g0
(g313
g2
Ntp1344
Rp1345
(dp1346
g317
(lp1347
g100
ag271
asg335
F0.782608695652174
sbag0
(g313
g2
Ntp1348
Rp1349
(dp1350
g317
(lp1351
g252
ag0
(g313
g2
Ntp1352
Rp1353
(dp1354
g317
(lp1355
g245
ag0
(g313
g2
Ntp1356
Rp1357
(dp1358
g317
(lp1359
g250
ag0
(g313
g2
Ntp1360
Rp1361
(dp1362
g317
(lp1363
g280
ag0
(g313
g2
Ntp1364
Rp1365
(dp1366
g317
(lp1367
g279
ag0
(g313
g2
Ntp1368
Rp1369
(dp1370
g317
(lp1371
g268
ag0
(g313
g2
Ntp1372
Rp1373
(dp1374
g317
(lp1375
g281
ag0
(g313
g2
Ntp1376
Rp1377
(dp1378
g317
(lp1379
g261
ag0
(g313
g2
Ntp1380
Rp1381
(dp1382
g317
(lp1383
g0
(g313
g2
Ntp1384
Rp1385
(dp1386
g317
(lp1387
g265
ag275
asg335
F0.6
sbag0
(g313
g2
Ntp1388
Rp1389
(dp1390
g317
(lp1391
g251
ag253
asg335
F0.6470588235294117
sbasg335
F0.6666666666666667
sbasg335
F0.7222222222222222
sbasg335
F0.7333333333333334
sbasg335
F0.736842105263158
sbasg335
F0.7647058823529411
sbasg335
F0.7647058823529411
sbasg335
F0.7666666666666666
sbasg335
F0.7777777777777778
sbasg335
F0.7837837837837838
sbasg335
F0.7878787878787878
sbasg335
F0.7941176470588236
sbasg335
F0.8
sbasg335
F0.8
sbasg335
F0.8095238095238095
sbasg335
F0.8095238095238095
sbasg335
F0.8125
sbasg335
F0.8125
sbasg335
F0.8181818181818181
sbasg335
F0.8214285714285714
sbasg335
F0.8260869565217391
sbasg335
F0.8260869565217391
sbasg335
F0.8285714285714285
sbasg335
F0.8333333333333334
sbasg335
F0.8333333333333334
sbasg335
F0.8333333333333334
sbasg335
F0.8333333333333334
sbasg335
F0.8333333333333334
sbag0
(g313
g2
Ntp1392
Rp1393
(dp1394
g317
(lp1395
g0
(g313
g2
Ntp1396
Rp1397
(dp1398
g317
(lp1399
g64
ag180
asg335
F0.8125
sbag0
(g313
g2
Ntp1400
Rp1401
(dp1402
g317
(lp1403
g83
ag0
(g313
g2
Ntp1404
Rp1405
(dp1406
g317
(lp1407
g0
(g313
g2
Ntp1408
Rp1409
(dp1410
g317
(lp1411
g210
ag0
(g313
g2
Ntp1412
Rp1413
(dp1414
g317
(lp1415
g208
ag211
asg335
F0.7857142857142857
sbasg335
F0.8125
sbag0
(g313
g2
Ntp1416
Rp1417
(dp1418
g317
(lp1419
g0
(g313
g2
Ntp1420
Rp1421
(dp1422
g317
(lp1423
g276
ag0
(g313
g2
Ntp1424
Rp1425
(dp1426
g317
(lp1427
g59
ag0
(g313
g2
Ntp1428
Rp1429
(dp1430
g317
(lp1431
g62
ag0
(g313
g2
Ntp1432
Rp1433
(dp1434
g317
(lp1435
g14
ag20
asg335
F0.75
sbasg335
F0.75
sbasg335
F0.7727272727272727
sbasg335
F0.7931034482758621
sbag0
(g313
g2
Ntp1436
Rp1437
(dp1438
g317
(lp1439
g19
ag0
(g313
g2
Ntp1440
Rp1441
(dp1442
g317
(lp1443
g22
ag203
asg335
F0.8095238095238095
sbasg335
F0.8125
sbasg335
F0.8235294117647058
sbasg335
F0.8235294117647058
sbasg335
F0.8275862068965517
sbasg335
F0.8333333333333334
sbasg335
F0.8387096774193549
sbasg335
F0.84
sbasg335
F0.8421052631578947
sbasg335
F0.8461538461538461
sbag0
(g313
g2
Ntp1444
Rp1445
(dp1446
g317
(lp1447
g0
(g313
g2
Ntp1448
Rp1449
(dp1450
g317
(lp1451
g144
ag145
asg335
F0.7777777777777778
sbag0
(g313
g2
Ntp1452
Rp1453
(dp1454
g317
(lp1455
g0
(g313
g2
Ntp1456
Rp1457
(dp1458
g317
(lp1459
g221
ag0
(g313
g2
Ntp1460
Rp1461
(dp1462
g317
(lp1463
g286
ag287
asg335
F0.7692307692307692
sbasg335
F0.8333333333333334
sbag0
(g313
g2
Ntp1464
Rp1465
(dp1466
g317
(lp1467
g0
(g313
g2
Ntp1468
Rp1469
(dp1470
g317
(lp1471
g76
ag0
(g313
g2
Ntp1472
Rp1473
(dp1474
g317
(lp1475
g75
ag0
(g313
g2
Ntp1476
Rp1477
(dp1478
g317
(lp1479
g73
ag172
asg335
F0.7666666666666666
sbasg335
F0.8
sbasg335
F0.8235294117647058
sbag0
(g313
g2
Ntp1480
Rp1481
(dp1482
g317
(lp1483
g0
(g313
g2
Ntp1484
Rp1485
(dp1486
g317
(lp1487
g123
ag0
(g313
g2
Ntp1488
Rp1489
(dp1490
g317
(lp1491
g121
ag124
asg335
F0.8125
sbasg335
F0.8148148148148149
sbag0
(g313
g2
Ntp1492
Rp1493
(dp1494
g317
(lp1495
g108
ag0
(g313
g2
Ntp1496
Rp1497
(dp1498
g317
(lp1499
g77
ag0
(g313
g2
Ntp1500
Rp1501
(dp1502
g317
(lp1503
g0
(g313
g2
Ntp1504
Rp1505
(dp1506
g317
(lp1507
g114
ag115
asg335
F0.6428571428571428
sbag0
(g313
g2
Ntp1508
Rp1509
(dp1510
g317
(lp1511
g112
ag113
asg335
F0.6666666666666667
sbasg335
F0.7
sbasg335
F0.7333333333333334
sbasg335
F0.8333333333333334
sbasg335
F0.8333333333333334
sbasg335
F0.8333333333333334
sbasg335
F0.8333333333333334
sbasg335
F0.8461538461538461
sbasg335
F0.8461538461538461
sbasg335
F0.8484848484848485
sbasg335
F0.85
sbasg335
F0.85
sbasg335
F0.8571428571428572
sbasg335
F0.8571428571428572
sbasg335
F0.8571428571428572
sbasg335
F0.8571428571428572
sbasg335
F0.8571428571428572
sbasg335
F0.8571428571428572
sbasg335
F0.8571428571428572
sbasg335
F0.86
sbasg335
F0.8636363636363636
sbasg335
F0.8636363636363636
sbasg335
F0.8636363636363636
sbasg335
F0.8648648648648649
sbasg335
F0.8666666666666667
sbasg335
F0.8666666666666667
sbasg335
F0.8666666666666667
sbasg335
F0.8666666666666667
sbasg335
F0.8666666666666667
sbasg335
F0.8666666666666667
sbasg335
F0.868421052631579
sbasg335
F0.8695652173913043
sbasg335
F0.8695652173913043
sbasg335
F0.8695652173913043
sbasg335
F0.8695652173913043
sbasg335
F0.875
sbasg335
F0.875
sbasg335
F0.875
sbasg335
F0.875
sbasg335
F0.875
sbasg335
F0.875
sbasg335
F0.875
sbasg335
F0.875
sbasg335
F0.875
sbasg335
F0.875
sbasg335
F0.875
sbasg335
F0.875
sbasg335
F0.88
sbasg335
F0.88
sbasg335
F0.88
sbasg335
F0.8823529411764706
sbasg335
F0.8823529411764706
sbasg335
F0.8823529411764706
sbasg335
F0.8823529411764706
sbasg335
F0.8823529411764706
sbasg335
F0.8837209302325582
sbasg335
F0.8837209302325582
sbasg335
F0.8846153846153846
sbasg335
F0.8846153846153846
sbasg335
F0.8888888888888888
sbasg335
F0.8888888888888888
sbasg335
F0.8888888888888888
sbasg335
F0.8888888888888888
sbasg335
F0.8888888888888888
sbasg335
F0.8888888888888888
sbasg335
F0.8888888888888888
sbasg335
F0.8888888888888888
sbasg335
F0.8888888888888888
sbasg335
F0.8888888888888888
sbasg335
F0.8888888888888888
sbasg335
F0.8888888888888888
sbasg335
F0.8936170212765957
sbasg335
F0.8947368421052632
sbasg335
F0.8947368421052632
sbasg335
F0.8947368421052632
sbasg335
F0.8947368421052632
sbasg335
F0.8947368421052632
sbasg335
F0.8947368421052632
sbasg335
F0.8947368421052632
sbasg335
F0.8947368421052632
sbasg335
F0.8947368421052632
sbasg335
F0.8947368421052632
sbasg335
F0.896551724137931
sbasg335
F0.896551724137931
sbasg335
F0.896551724137931
sbasg335
F0.896551724137931
sbasg335
F0.896551724137931
sbasg335
F0.8979591836734694
sbasg335
F0.9
sbasg335
F0.9
sbasg335
F0.9
sbasg335
F0.9
sbasg335
F0.9
sbasg335
F0.9
sbasg335
F0.9
sbasg335
F0.9
sbasg335
F0.9
sbasg335
F0.9047619047619048
sbasg335
F0.9047619047619048
sbasg335
F0.9056603773584906
sbasg335
F0.9069767441860466
sbasg335
F0.9090909090909091
sbasg335
F0.9090909090909091
sbasg335
F0.9090909090909091
sbasg335
F0.9090909090909091
sbasg335
F0.9090909090909091
sbasg335
F0.9117647058823529
sbasg335
F0.9130434782608696
sbasg335
F0.9130434782608696
sbasg335
F0.9130434782608696
sbasg335
F0.9166666666666666
sbasg335
F0.9189189189189189
sbasg335
F0.9189189189189189
sbasg335
F0.9193548387096774
sbasg335
F0.9230769230769231
sbasg335
F0.9230769230769231
sbasg335
F0.9230769230769231
sbasg335
F0.9259259259259259
sbasg335
F0.9259259259259259
sbasg335
F0.9285714285714286
sbasg335
F0.9333333333333333
sbasg335
F0.9333333333333333
sbasg335
F0.935483870967742
sbasg335
F0.9375
sbasg335
F0.9411764705882353
sbasg335
F0.9420289855072463
sbasg335
F0.9574468085106383
sbasg335
F1.0
sbasS'linkage'
p1512
Nsb.