ccopy_reg
_reconstructor
p0
(ccluster.method.hierarchical
HierarchicalClustering
p1
c__builtin__
object
p2
Ntp3
Rp4
(dp5
S'distance'
p6
NsS'_input'
p7
(lp8
S'assistantprofessor0'
p9
aS'fullprofessor1'
p10
aS'fullprofessor2'
p11
aS'graduatestudent1'
p12
aS'graduatestudent111'
p13
aS'graduatestudent112'
p14
aS'graduatestudent12'
p15
aS'graduatestudent122'
p16
aS'graduatestudent125'
p17
aS'graduatestudent129'
p18
aS'graduatestudent135'
p19
aS'graduatestudent139'
p20
aS'graduatestudent14'
p21
aS'graduatestudent141'
p22
aS'graduatestudent15'
p23
aS'graduatestudent17'
p24
aS'graduatestudent25'
p25
aS'graduatestudent84'
p26
aS'graduatestudent86'
p27
aS'graduatestudent91'
p28
aS'undergraduatestudent123'
p29
aS'undergraduatestudent128'
p30
aS'undergraduatestudent132'
p31
aS'undergraduatestudent161'
p32
aS'undergraduatestudent161'
p33
aS'undergraduatestudent188'
p34
aS'undergraduatestudent20'
p35
aS'undergraduatestudent204'
p36
aS'undergraduatestudent21'
p37
aS'undergraduatestudent224'
p38
aS'undergraduatestudent244'
p39
aS'undergraduatestudent313'
p40
aS'undergraduatestudent328'
p41
aS'undergraduatestudent330'
p42
aS'undergraduatestudent346'
p43
aS'undergraduatestudent350'
p44
aS'undergraduatestudent354'
p45
aS'undergraduatestudent360'
p46
aS'undergraduatestudent375'
p47
aS'undergraduatestudent390'
p48
aS'undergraduatestudent396'
p49
aS'undergraduatestudent406'
p50
aS'undergraduatestudent408'
p51
aS'undergraduatestudent425'
p52
aS'undergraduatestudent485'
p53
aS'undergraduatestudent485'
p54
aS'undergraduatestudent491'
p55
aS'undergraduatestudent513'
p56
aS'undergraduatestudent521'
p57
aS'undergraduatestudent72'
p58
asS'num_processes'
p59
I1
sS'_HierarchicalClustering__cluster_created'
p60
I01
sS'_data'
p61
(lp62
g0
(ccluster.cluster
Cluster
p63
g2
Ntp64
Rp65
(dp66
S'_Cluster__items'
p67
(lp68
g0
(g63
g2
Ntp69
Rp70
(dp71
g67
(lp72
g0
(g63
g2
Ntp73
Rp74
(dp75
g67
(lp76
g0
(g63
g2
Ntp77
Rp78
(dp79
g67
(lp80
g20
ag0
(g63
g2
Ntp81
Rp82
(dp83
g67
(lp84
g0
(g63
g2
Ntp85
Rp86
(dp87
g67
(lp88
g0
(g63
g2
Ntp89
Rp90
(dp91
g67
(lp92
g18
ag0
(g63
g2
Ntp93
Rp94
(dp95
g67
(lp96
g16
ag0
(g63
g2
Ntp97
Rp98
(dp99
g67
(lp100
g14
ag15
asS'_Cluster__level'
p101
F0.1428571428571429
sbasg101
F0.1428571428571429
sbasg101
F0.2272727272727273
sbag0
(g63
g2
Ntp102
Rp103
(dp104
g67
(lp105
g25
ag0
(g63
g2
Ntp106
Rp107
(dp108
g67
(lp109
g19
ag0
(g63
g2
Ntp110
Rp111
(dp112
g67
(lp113
g17
ag23
asg101
F0.2272727272727273
sbasg101
F0.2272727272727273
sbasg101
F0.2272727272727273
sbasg101
F0.2272727272727273
sbag0
(g63
g2
Ntp114
Rp115
(dp116
g67
(lp117
g28
ag0
(g63
g2
Ntp118
Rp119
(dp120
g67
(lp121
g24
ag0
(g63
g2
Ntp122
Rp123
(dp124
g67
(lp125
g21
ag0
(g63
g2
Ntp126
Rp127
(dp128
g67
(lp129
g22
ag0
(g63
g2
Ntp130
Rp131
(dp132
g67
(lp133
g12
ag13
asg101
F0.19047619047619047
sbasg101
F0.19047619047619047
sbasg101
F0.2272727272727273
sbasg101
F0.23809523809523814
sbasg101
F0.23809523809523814
sbasg101
F0.23809523809523814
sbasg101
F0.26086956521739135
sbag0
(g63
g2
Ntp134
Rp135
(dp136
g67
(lp137
g26
ag27
asg101
F0.2727272727272727
sbasg101
F0.2727272727272727
sbag0
(g63
g2
Ntp138
Rp139
(dp140
g67
(lp141
g0
(g63
g2
Ntp142
Rp143
(dp144
g67
(lp145
g0
(g63
g2
Ntp146
Rp147
(dp148
g67
(lp149
g31
ag58
asg101
F0.25
sbag0
(g63
g2
Ntp150
Rp151
(dp152
g67
(lp153
g0
(g63
g2
Ntp154
Rp155
(dp156
g67
(lp157
g41
ag0
(g63
g2
Ntp158
Rp159
(dp160
g67
(lp161
g34
ag0
(g63
g2
Ntp162
Rp163
(dp164
g67
(lp165
g29
ag30
asg101
F0.2142857142857143
sbasg101
F0.2142857142857143
sbasg101
F0.2142857142857143
sbag0
(g63
g2
Ntp166
Rp167
(dp168
g67
(lp169
g50
ag51
asg101
F0.2142857142857143
sbasg101
F0.27586206896551724
sbasg101
F0.27586206896551724
sbag0
(g63
g2
Ntp170
Rp171
(dp172
g67
(lp173
g0
(g63
g2
Ntp174
Rp175
(dp176
g67
(lp177
g47
ag0
(g63
g2
Ntp178
Rp179
(dp180
g67
(lp181
g40
ag56
asg101
F0.2142857142857143
sbasg101
F0.27586206896551724
sbag0
(g63
g2
Ntp182
Rp183
(dp184
g67
(lp185
g0
(g63
g2
Ntp186
Rp187
(dp188
g67
(lp189
g52
ag0
(g63
g2
Ntp190
Rp191
(dp192
g67
(lp193
g53
ag54
asg101
F0.0
sbasg101
F0.2142857142857143
sbag0
(g63
g2
Ntp194
Rp195
(dp196
g67
(lp197
g0
(g63
g2
Ntp198
Rp199
(dp200
g67
(lp201
g0
(g63
g2
Ntp202
Rp203
(dp204
g67
(lp205
g45
ag0
(g63
g2
Ntp206
Rp207
(dp208
g67
(lp209
g42
ag44
asg101
F0.2142857142857143
sbasg101
F0.2142857142857143
sbag0
(g63
g2
Ntp210
Rp211
(dp212
g67
(lp213
g0
(g63
g2
Ntp214
Rp215
(dp216
g67
(lp217
g43
ag49
asg101
F0.2142857142857143
sbag0
(g63
g2
Ntp218
Rp219
(dp220
g67
(lp221
g46
ag48
asg101
F0.2142857142857143
sbasg101
F0.2142857142857143
sbasg101
F0.2142857142857143
sbag0
(g63
g2
Ntp222
Rp223
(dp224
g67
(lp225
g0
(g63
g2
Ntp226
Rp227
(dp228
g67
(lp229
g32
ag33
asg101
F0.0
sbag0
(g63
g2
Ntp230
Rp231
(dp232
g67
(lp233
g55
ag0
(g63
g2
Ntp234
Rp235
(dp236
g67
(lp237
g0
(g63
g2
Ntp238
Rp239
(dp240
g67
(lp241
g37
ag57
asg101
F0.18518518518518523
sbag0
(g63
g2
Ntp242
Rp243
(dp244
g67
(lp245
g0
(g63
g2
Ntp246
Rp247
(dp248
g67
(lp249
g35
ag36
asg101
F0.18518518518518523
sbag0
(g63
g2
Ntp250
Rp251
(dp252
g67
(lp253
g38
ag39
asg101
F0.2142857142857143
sbasg101
F0.2142857142857143
sbasg101
F0.2222222222222222
sbasg101
F0.25
sbasg101
F0.25
sbasg101
F0.25
sbasg101
F0.27586206896551724
sbasg101
F0.27586206896551724
sbasg101
F0.27586206896551724
sbasg101
F0.4642857142857143
sbag0
(g63
g2
Ntp254
Rp255
(dp256
g67
(lp257
g9
ag0
(g63
g2
Ntp258
Rp259
(dp260
g67
(lp261
g10
ag11
asg101
F0.3157894736842105
sbasg101
F0.7666666666666666
sbasg101
F0.9696969696969697
sbasS'linkage'
p262
Nsb.