ccopy_reg
_reconstructor
p0
(ccluster.method.hierarchical
HierarchicalClustering
p1
c__builtin__
object
p2
Ntp3
Rp4
(dp5
S'distance'
p6
NsS'_input'
p7
(lp8
S'assistantprofessor0'
p9
aS'assistantprofessor1'
p10
aS'assistantprofessor2'
p11
aS'assistantprofessor3'
p12
aS'assistantprofessor4'
p13
aS'assistantprofessor5'
p14
aS'assistantprofessor6'
p15
aS'assistantprofessor7'
p16
aS'assistantprofessor8'
p17
aS'assistantprofessor9'
p18
aS'associateprofessor0'
p19
aS'associateprofessor1'
p20
aS'associateprofessor10'
p21
aS'associateprofessor11'
p22
aS'associateprofessor12'
p23
aS'associateprofessor13'
p24
aS'associateprofessor2'
p25
aS'associateprofessor3'
p26
aS'associateprofessor4'
p27
aS'associateprofessor5'
p28
aS'associateprofessor6'
p29
aS'associateprofessor7'
p30
aS'associateprofessor8'
p31
aS'associateprofessor9'
p32
aS'fullprofessor0'
p33
aS'fullprofessor1'
p34
aS'fullprofessor2'
p35
aS'fullprofessor3'
p36
aS'fullprofessor4'
p37
aS'fullprofessor5'
p38
aS'fullprofessor6'
p39
aS'fullprofessor7'
p40
aS'fullprofessor8'
p41
aS'fullprofessor9'
p42
aS'graduatestudent0'
p43
aS'graduatestudent1'
p44
aS'graduatestudent10'
p45
aS'graduatestudent100'
p46
aS'graduatestudent101'
p47
aS'graduatestudent102'
p48
aS'graduatestudent103'
p49
aS'graduatestudent104'
p50
aS'graduatestudent105'
p51
aS'graduatestudent106'
p52
aS'graduatestudent107'
p53
aS'graduatestudent108'
p54
aS'graduatestudent109'
p55
aS'graduatestudent11'
p56
aS'graduatestudent110'
p57
aS'graduatestudent111'
p58
aS'graduatestudent112'
p59
aS'graduatestudent113'
p60
aS'graduatestudent114'
p61
aS'graduatestudent115'
p62
aS'graduatestudent116'
p63
aS'graduatestudent117'
p64
aS'graduatestudent118'
p65
aS'graduatestudent119'
p66
aS'graduatestudent12'
p67
aS'graduatestudent120'
p68
aS'graduatestudent121'
p69
aS'graduatestudent122'
p70
aS'graduatestudent123'
p71
aS'graduatestudent124'
p72
aS'graduatestudent125'
p73
aS'graduatestudent126'
p74
aS'graduatestudent127'
p75
aS'graduatestudent128'
p76
aS'graduatestudent129'
p77
aS'graduatestudent13'
p78
aS'graduatestudent130'
p79
aS'graduatestudent131'
p80
aS'graduatestudent132'
p81
aS'graduatestudent133'
p82
aS'graduatestudent134'
p83
aS'graduatestudent135'
p84
aS'graduatestudent136'
p85
aS'graduatestudent137'
p86
aS'graduatestudent138'
p87
aS'graduatestudent139'
p88
aS'graduatestudent14'
p89
aS'graduatestudent140'
p90
aS'graduatestudent141'
p91
aS'graduatestudent142'
p92
aS'graduatestudent143'
p93
aS'graduatestudent144'
p94
aS'graduatestudent145'
p95
aS'graduatestudent15'
p96
aS'graduatestudent16'
p97
aS'graduatestudent17'
p98
aS'graduatestudent18'
p99
aS'graduatestudent19'
p100
aS'graduatestudent2'
p101
aS'graduatestudent20'
p102
aS'graduatestudent21'
p103
aS'graduatestudent22'
p104
aS'graduatestudent23'
p105
aS'graduatestudent24'
p106
aS'graduatestudent25'
p107
aS'graduatestudent26'
p108
aS'graduatestudent27'
p109
aS'graduatestudent28'
p110
aS'graduatestudent29'
p111
aS'graduatestudent3'
p112
aS'graduatestudent30'
p113
aS'graduatestudent31'
p114
aS'graduatestudent32'
p115
aS'graduatestudent33'
p116
aS'graduatestudent34'
p117
aS'graduatestudent35'
p118
aS'graduatestudent36'
p119
aS'graduatestudent37'
p120
aS'graduatestudent38'
p121
aS'graduatestudent39'
p122
aS'graduatestudent4'
p123
aS'graduatestudent40'
p124
aS'graduatestudent41'
p125
aS'graduatestudent42'
p126
aS'graduatestudent43'
p127
aS'graduatestudent44'
p128
aS'graduatestudent45'
p129
aS'graduatestudent46'
p130
aS'graduatestudent47'
p131
aS'graduatestudent48'
p132
aS'graduatestudent49'
p133
aS'graduatestudent5'
p134
aS'graduatestudent50'
p135
aS'graduatestudent51'
p136
aS'graduatestudent52'
p137
aS'graduatestudent53'
p138
aS'graduatestudent54'
p139
aS'graduatestudent55'
p140
aS'graduatestudent56'
p141
aS'graduatestudent57'
p142
aS'graduatestudent58'
p143
aS'graduatestudent59'
p144
aS'graduatestudent6'
p145
aS'graduatestudent60'
p146
aS'graduatestudent61'
p147
aS'graduatestudent62'
p148
aS'graduatestudent63'
p149
aS'graduatestudent64'
p150
aS'graduatestudent65'
p151
aS'graduatestudent66'
p152
aS'graduatestudent67'
p153
aS'graduatestudent68'
p154
aS'graduatestudent69'
p155
aS'graduatestudent7'
p156
aS'graduatestudent70'
p157
aS'graduatestudent71'
p158
aS'graduatestudent72'
p159
aS'graduatestudent73'
p160
aS'graduatestudent74'
p161
aS'graduatestudent75'
p162
aS'graduatestudent76'
p163
aS'graduatestudent77'
p164
aS'graduatestudent78'
p165
aS'graduatestudent79'
p166
aS'graduatestudent8'
p167
aS'graduatestudent80'
p168
aS'graduatestudent81'
p169
aS'graduatestudent82'
p170
aS'graduatestudent83'
p171
aS'graduatestudent84'
p172
aS'graduatestudent85'
p173
aS'graduatestudent86'
p174
aS'graduatestudent87'
p175
aS'graduatestudent88'
p176
aS'graduatestudent89'
p177
aS'graduatestudent9'
p178
aS'graduatestudent90'
p179
aS'graduatestudent91'
p180
aS'graduatestudent92'
p181
aS'graduatestudent93'
p182
aS'graduatestudent94'
p183
aS'graduatestudent95'
p184
aS'graduatestudent96'
p185
aS'graduatestudent97'
p186
aS'graduatestudent98'
p187
aS'graduatestudent99'
p188
aS'lecturer0'
p189
aS'lecturer1'
p190
aS'lecturer2'
p191
aS'lecturer3'
p192
aS'lecturer4'
p193
aS'lecturer5'
p194
aS'lecturer6'
p195
aS'undergraduatestudent0'
p196
aS'undergraduatestudent1'
p197
aS'undergraduatestudent10'
p198
aS'undergraduatestudent100'
p199
aS'undergraduatestudent101'
p200
aS'undergraduatestudent102'
p201
aS'undergraduatestudent103'
p202
aS'undergraduatestudent104'
p203
aS'undergraduatestudent105'
p204
aS'undergraduatestudent106'
p205
aS'undergraduatestudent107'
p206
aS'undergraduatestudent108'
p207
aS'undergraduatestudent109'
p208
aS'undergraduatestudent11'
p209
aS'undergraduatestudent110'
p210
aS'undergraduatestudent111'
p211
aS'undergraduatestudent112'
p212
aS'undergraduatestudent113'
p213
aS'undergraduatestudent114'
p214
aS'undergraduatestudent115'
p215
aS'undergraduatestudent116'
p216
aS'undergraduatestudent117'
p217
aS'undergraduatestudent118'
p218
aS'undergraduatestudent119'
p219
aS'undergraduatestudent12'
p220
aS'undergraduatestudent120'
p221
aS'undergraduatestudent121'
p222
aS'undergraduatestudent122'
p223
aS'undergraduatestudent123'
p224
aS'undergraduatestudent124'
p225
aS'undergraduatestudent125'
p226
aS'undergraduatestudent126'
p227
aS'undergraduatestudent127'
p228
aS'undergraduatestudent128'
p229
aS'undergraduatestudent129'
p230
aS'undergraduatestudent13'
p231
aS'undergraduatestudent130'
p232
aS'undergraduatestudent131'
p233
aS'undergraduatestudent132'
p234
aS'undergraduatestudent133'
p235
aS'undergraduatestudent134'
p236
aS'undergraduatestudent135'
p237
aS'undergraduatestudent136'
p238
aS'undergraduatestudent137'
p239
aS'undergraduatestudent138'
p240
aS'undergraduatestudent139'
p241
aS'undergraduatestudent14'
p242
aS'undergraduatestudent140'
p243
aS'undergraduatestudent141'
p244
aS'undergraduatestudent142'
p245
aS'undergraduatestudent143'
p246
aS'undergraduatestudent144'
p247
aS'undergraduatestudent145'
p248
aS'undergraduatestudent146'
p249
aS'undergraduatestudent147'
p250
aS'undergraduatestudent148'
p251
aS'undergraduatestudent149'
p252
aS'undergraduatestudent15'
p253
aS'undergraduatestudent150'
p254
aS'undergraduatestudent151'
p255
aS'undergraduatestudent152'
p256
aS'undergraduatestudent153'
p257
aS'undergraduatestudent154'
p258
aS'undergraduatestudent155'
p259
aS'undergraduatestudent156'
p260
aS'undergraduatestudent157'
p261
aS'undergraduatestudent158'
p262
aS'undergraduatestudent159'
p263
aS'undergraduatestudent16'
p264
aS'undergraduatestudent160'
p265
aS'undergraduatestudent161'
p266
aS'undergraduatestudent162'
p267
aS'undergraduatestudent163'
p268
aS'undergraduatestudent164'
p269
aS'undergraduatestudent165'
p270
aS'undergraduatestudent166'
p271
aS'undergraduatestudent167'
p272
aS'undergraduatestudent168'
p273
aS'undergraduatestudent169'
p274
aS'undergraduatestudent17'
p275
aS'undergraduatestudent170'
p276
aS'undergraduatestudent171'
p277
aS'undergraduatestudent172'
p278
aS'undergraduatestudent173'
p279
aS'undergraduatestudent174'
p280
aS'undergraduatestudent175'
p281
aS'undergraduatestudent176'
p282
aS'undergraduatestudent177'
p283
aS'undergraduatestudent178'
p284
aS'undergraduatestudent179'
p285
aS'undergraduatestudent18'
p286
aS'undergraduatestudent180'
p287
aS'undergraduatestudent181'
p288
aS'undergraduatestudent182'
p289
aS'undergraduatestudent183'
p290
aS'undergraduatestudent184'
p291
aS'undergraduatestudent185'
p292
aS'undergraduatestudent186'
p293
aS'undergraduatestudent187'
p294
aS'undergraduatestudent188'
p295
aS'undergraduatestudent189'
p296
aS'undergraduatestudent19'
p297
aS'undergraduatestudent190'
p298
aS'undergraduatestudent191'
p299
aS'undergraduatestudent192'
p300
aS'undergraduatestudent193'
p301
aS'undergraduatestudent194'
p302
aS'undergraduatestudent195'
p303
aS'undergraduatestudent196'
p304
aS'undergraduatestudent197'
p305
aS'undergraduatestudent198'
p306
aS'undergraduatestudent199'
p307
aS'undergraduatestudent2'
p308
aS'undergraduatestudent20'
p309
aS'undergraduatestudent200'
p310
aS'undergraduatestudent201'
p311
aS'undergraduatestudent202'
p312
aS'undergraduatestudent203'
p313
aS'undergraduatestudent204'
p314
aS'undergraduatestudent205'
p315
aS'undergraduatestudent206'
p316
aS'undergraduatestudent207'
p317
aS'undergraduatestudent208'
p318
aS'undergraduatestudent209'
p319
aS'undergraduatestudent21'
p320
aS'undergraduatestudent210'
p321
aS'undergraduatestudent211'
p322
aS'undergraduatestudent212'
p323
aS'undergraduatestudent213'
p324
aS'undergraduatestudent214'
p325
aS'undergraduatestudent215'
p326
aS'undergraduatestudent216'
p327
aS'undergraduatestudent217'
p328
aS'undergraduatestudent218'
p329
aS'undergraduatestudent219'
p330
aS'undergraduatestudent22'
p331
aS'undergraduatestudent220'
p332
aS'undergraduatestudent221'
p333
aS'undergraduatestudent222'
p334
aS'undergraduatestudent223'
p335
aS'undergraduatestudent224'
p336
aS'undergraduatestudent225'
p337
aS'undergraduatestudent226'
p338
aS'undergraduatestudent227'
p339
aS'undergraduatestudent228'
p340
aS'undergraduatestudent229'
p341
aS'undergraduatestudent23'
p342
aS'undergraduatestudent230'
p343
aS'undergraduatestudent231'
p344
aS'undergraduatestudent232'
p345
aS'undergraduatestudent233'
p346
aS'undergraduatestudent234'
p347
aS'undergraduatestudent235'
p348
aS'undergraduatestudent236'
p349
aS'undergraduatestudent237'
p350
aS'undergraduatestudent238'
p351
aS'undergraduatestudent239'
p352
aS'undergraduatestudent24'
p353
aS'undergraduatestudent240'
p354
aS'undergraduatestudent241'
p355
aS'undergraduatestudent242'
p356
aS'undergraduatestudent243'
p357
aS'undergraduatestudent244'
p358
aS'undergraduatestudent245'
p359
aS'undergraduatestudent246'
p360
aS'undergraduatestudent247'
p361
aS'undergraduatestudent248'
p362
aS'undergraduatestudent249'
p363
aS'undergraduatestudent25'
p364
aS'undergraduatestudent250'
p365
aS'undergraduatestudent251'
p366
aS'undergraduatestudent252'
p367
aS'undergraduatestudent253'
p368
aS'undergraduatestudent254'
p369
aS'undergraduatestudent255'
p370
aS'undergraduatestudent256'
p371
aS'undergraduatestudent257'
p372
aS'undergraduatestudent258'
p373
aS'undergraduatestudent259'
p374
aS'undergraduatestudent26'
p375
aS'undergraduatestudent260'
p376
aS'undergraduatestudent261'
p377
aS'undergraduatestudent262'
p378
aS'undergraduatestudent263'
p379
aS'undergraduatestudent264'
p380
aS'undergraduatestudent265'
p381
aS'undergraduatestudent266'
p382
aS'undergraduatestudent267'
p383
aS'undergraduatestudent268'
p384
aS'undergraduatestudent269'
p385
aS'undergraduatestudent27'
p386
aS'undergraduatestudent270'
p387
aS'undergraduatestudent271'
p388
aS'undergraduatestudent272'
p389
aS'undergraduatestudent273'
p390
aS'undergraduatestudent274'
p391
aS'undergraduatestudent275'
p392
aS'undergraduatestudent276'
p393
aS'undergraduatestudent277'
p394
aS'undergraduatestudent278'
p395
aS'undergraduatestudent279'
p396
aS'undergraduatestudent28'
p397
aS'undergraduatestudent280'
p398
aS'undergraduatestudent281'
p399
aS'undergraduatestudent282'
p400
aS'undergraduatestudent283'
p401
aS'undergraduatestudent284'
p402
aS'undergraduatestudent285'
p403
aS'undergraduatestudent286'
p404
aS'undergraduatestudent287'
p405
aS'undergraduatestudent288'
p406
aS'undergraduatestudent289'
p407
aS'undergraduatestudent29'
p408
aS'undergraduatestudent290'
p409
aS'undergraduatestudent291'
p410
aS'undergraduatestudent292'
p411
aS'undergraduatestudent293'
p412
aS'undergraduatestudent294'
p413
aS'undergraduatestudent295'
p414
aS'undergraduatestudent296'
p415
aS'undergraduatestudent297'
p416
aS'undergraduatestudent298'
p417
aS'undergraduatestudent299'
p418
aS'undergraduatestudent3'
p419
aS'undergraduatestudent30'
p420
aS'undergraduatestudent300'
p421
aS'undergraduatestudent301'
p422
aS'undergraduatestudent302'
p423
aS'undergraduatestudent303'
p424
aS'undergraduatestudent304'
p425
aS'undergraduatestudent305'
p426
aS'undergraduatestudent306'
p427
aS'undergraduatestudent307'
p428
aS'undergraduatestudent308'
p429
aS'undergraduatestudent309'
p430
aS'undergraduatestudent31'
p431
aS'undergraduatestudent310'
p432
aS'undergraduatestudent311'
p433
aS'undergraduatestudent312'
p434
aS'undergraduatestudent313'
p435
aS'undergraduatestudent314'
p436
aS'undergraduatestudent315'
p437
aS'undergraduatestudent316'
p438
aS'undergraduatestudent317'
p439
aS'undergraduatestudent318'
p440
aS'undergraduatestudent319'
p441
aS'undergraduatestudent32'
p442
aS'undergraduatestudent320'
p443
aS'undergraduatestudent321'
p444
aS'undergraduatestudent322'
p445
aS'undergraduatestudent323'
p446
aS'undergraduatestudent324'
p447
aS'undergraduatestudent325'
p448
aS'undergraduatestudent326'
p449
aS'undergraduatestudent327'
p450
aS'undergraduatestudent328'
p451
aS'undergraduatestudent329'
p452
aS'undergraduatestudent33'
p453
aS'undergraduatestudent330'
p454
aS'undergraduatestudent331'
p455
aS'undergraduatestudent332'
p456
aS'undergraduatestudent333'
p457
aS'undergraduatestudent334'
p458
aS'undergraduatestudent335'
p459
aS'undergraduatestudent336'
p460
aS'undergraduatestudent337'
p461
aS'undergraduatestudent338'
p462
aS'undergraduatestudent339'
p463
aS'undergraduatestudent34'
p464
aS'undergraduatestudent340'
p465
aS'undergraduatestudent341'
p466
aS'undergraduatestudent342'
p467
aS'undergraduatestudent343'
p468
aS'undergraduatestudent344'
p469
aS'undergraduatestudent345'
p470
aS'undergraduatestudent346'
p471
aS'undergraduatestudent347'
p472
aS'undergraduatestudent348'
p473
aS'undergraduatestudent349'
p474
aS'undergraduatestudent35'
p475
aS'undergraduatestudent350'
p476
aS'undergraduatestudent351'
p477
aS'undergraduatestudent352'
p478
aS'undergraduatestudent353'
p479
aS'undergraduatestudent354'
p480
aS'undergraduatestudent355'
p481
aS'undergraduatestudent356'
p482
aS'undergraduatestudent357'
p483
aS'undergraduatestudent358'
p484
aS'undergraduatestudent359'
p485
aS'undergraduatestudent36'
p486
aS'undergraduatestudent360'
p487
aS'undergraduatestudent361'
p488
aS'undergraduatestudent362'
p489
aS'undergraduatestudent363'
p490
aS'undergraduatestudent364'
p491
aS'undergraduatestudent365'
p492
aS'undergraduatestudent366'
p493
aS'undergraduatestudent367'
p494
aS'undergraduatestudent368'
p495
aS'undergraduatestudent369'
p496
aS'undergraduatestudent37'
p497
aS'undergraduatestudent370'
p498
aS'undergraduatestudent371'
p499
aS'undergraduatestudent372'
p500
aS'undergraduatestudent373'
p501
aS'undergraduatestudent374'
p502
aS'undergraduatestudent375'
p503
aS'undergraduatestudent376'
p504
aS'undergraduatestudent377'
p505
aS'undergraduatestudent378'
p506
aS'undergraduatestudent379'
p507
aS'undergraduatestudent38'
p508
aS'undergraduatestudent380'
p509
aS'undergraduatestudent381'
p510
aS'undergraduatestudent382'
p511
aS'undergraduatestudent383'
p512
aS'undergraduatestudent384'
p513
aS'undergraduatestudent385'
p514
aS'undergraduatestudent386'
p515
aS'undergraduatestudent387'
p516
aS'undergraduatestudent388'
p517
aS'undergraduatestudent389'
p518
aS'undergraduatestudent39'
p519
aS'undergraduatestudent390'
p520
aS'undergraduatestudent391'
p521
aS'undergraduatestudent392'
p522
aS'undergraduatestudent393'
p523
aS'undergraduatestudent394'
p524
aS'undergraduatestudent395'
p525
aS'undergraduatestudent396'
p526
aS'undergraduatestudent397'
p527
aS'undergraduatestudent398'
p528
aS'undergraduatestudent399'
p529
aS'undergraduatestudent4'
p530
aS'undergraduatestudent40'
p531
aS'undergraduatestudent400'
p532
aS'undergraduatestudent401'
p533
aS'undergraduatestudent402'
p534
aS'undergraduatestudent403'
p535
aS'undergraduatestudent404'
p536
aS'undergraduatestudent405'
p537
aS'undergraduatestudent406'
p538
aS'undergraduatestudent407'
p539
aS'undergraduatestudent408'
p540
aS'undergraduatestudent409'
p541
aS'undergraduatestudent41'
p542
aS'undergraduatestudent410'
p543
aS'undergraduatestudent411'
p544
aS'undergraduatestudent412'
p545
aS'undergraduatestudent413'
p546
aS'undergraduatestudent414'
p547
aS'undergraduatestudent415'
p548
aS'undergraduatestudent416'
p549
aS'undergraduatestudent417'
p550
aS'undergraduatestudent418'
p551
aS'undergraduatestudent419'
p552
aS'undergraduatestudent42'
p553
aS'undergraduatestudent420'
p554
aS'undergraduatestudent421'
p555
aS'undergraduatestudent422'
p556
aS'undergraduatestudent423'
p557
aS'undergraduatestudent424'
p558
aS'undergraduatestudent425'
p559
aS'undergraduatestudent426'
p560
aS'undergraduatestudent427'
p561
aS'undergraduatestudent428'
p562
aS'undergraduatestudent429'
p563
aS'undergraduatestudent43'
p564
aS'undergraduatestudent430'
p565
aS'undergraduatestudent431'
p566
aS'undergraduatestudent432'
p567
aS'undergraduatestudent433'
p568
aS'undergraduatestudent434'
p569
aS'undergraduatestudent435'
p570
aS'undergraduatestudent436'
p571
aS'undergraduatestudent437'
p572
aS'undergraduatestudent438'
p573
aS'undergraduatestudent439'
p574
aS'undergraduatestudent44'
p575
aS'undergraduatestudent440'
p576
aS'undergraduatestudent441'
p577
aS'undergraduatestudent442'
p578
aS'undergraduatestudent443'
p579
aS'undergraduatestudent444'
p580
aS'undergraduatestudent445'
p581
aS'undergraduatestudent446'
p582
aS'undergraduatestudent447'
p583
aS'undergraduatestudent448'
p584
aS'undergraduatestudent449'
p585
aS'undergraduatestudent45'
p586
aS'undergraduatestudent450'
p587
aS'undergraduatestudent451'
p588
aS'undergraduatestudent452'
p589
aS'undergraduatestudent453'
p590
aS'undergraduatestudent454'
p591
aS'undergraduatestudent455'
p592
aS'undergraduatestudent456'
p593
aS'undergraduatestudent457'
p594
aS'undergraduatestudent458'
p595
aS'undergraduatestudent459'
p596
aS'undergraduatestudent46'
p597
aS'undergraduatestudent460'
p598
aS'undergraduatestudent461'
p599
aS'undergraduatestudent462'
p600
aS'undergraduatestudent463'
p601
aS'undergraduatestudent464'
p602
aS'undergraduatestudent465'
p603
aS'undergraduatestudent466'
p604
aS'undergraduatestudent467'
p605
aS'undergraduatestudent468'
p606
aS'undergraduatestudent469'
p607
aS'undergraduatestudent47'
p608
aS'undergraduatestudent470'
p609
aS'undergraduatestudent471'
p610
aS'undergraduatestudent472'
p611
aS'undergraduatestudent473'
p612
aS'undergraduatestudent474'
p613
aS'undergraduatestudent475'
p614
aS'undergraduatestudent476'
p615
aS'undergraduatestudent477'
p616
aS'undergraduatestudent478'
p617
aS'undergraduatestudent479'
p618
aS'undergraduatestudent48'
p619
aS'undergraduatestudent480'
p620
aS'undergraduatestudent481'
p621
aS'undergraduatestudent482'
p622
aS'undergraduatestudent483'
p623
aS'undergraduatestudent484'
p624
aS'undergraduatestudent485'
p625
aS'undergraduatestudent486'
p626
aS'undergraduatestudent487'
p627
aS'undergraduatestudent488'
p628
aS'undergraduatestudent489'
p629
aS'undergraduatestudent49'
p630
aS'undergraduatestudent490'
p631
aS'undergraduatestudent491'
p632
aS'undergraduatestudent492'
p633
aS'undergraduatestudent493'
p634
aS'undergraduatestudent494'
p635
aS'undergraduatestudent495'
p636
aS'undergraduatestudent496'
p637
aS'undergraduatestudent497'
p638
aS'undergraduatestudent498'
p639
aS'undergraduatestudent499'
p640
aS'undergraduatestudent5'
p641
aS'undergraduatestudent50'
p642
aS'undergraduatestudent500'
p643
aS'undergraduatestudent501'
p644
aS'undergraduatestudent502'
p645
aS'undergraduatestudent503'
p646
aS'undergraduatestudent504'
p647
aS'undergraduatestudent505'
p648
aS'undergraduatestudent506'
p649
aS'undergraduatestudent507'
p650
aS'undergraduatestudent508'
p651
aS'undergraduatestudent509'
p652
aS'undergraduatestudent51'
p653
aS'undergraduatestudent510'
p654
aS'undergraduatestudent511'
p655
aS'undergraduatestudent512'
p656
aS'undergraduatestudent513'
p657
aS'undergraduatestudent514'
p658
aS'undergraduatestudent515'
p659
aS'undergraduatestudent516'
p660
aS'undergraduatestudent517'
p661
aS'undergraduatestudent518'
p662
aS'undergraduatestudent519'
p663
aS'undergraduatestudent52'
p664
aS'undergraduatestudent520'
p665
aS'undergraduatestudent521'
p666
aS'undergraduatestudent522'
p667
aS'undergraduatestudent523'
p668
aS'undergraduatestudent524'
p669
aS'undergraduatestudent525'
p670
aS'undergraduatestudent526'
p671
aS'undergraduatestudent527'
p672
aS'undergraduatestudent528'
p673
aS'undergraduatestudent529'
p674
aS'undergraduatestudent53'
p675
aS'undergraduatestudent530'
p676
aS'undergraduatestudent531'
p677
aS'undergraduatestudent54'
p678
aS'undergraduatestudent55'
p679
aS'undergraduatestudent56'
p680
aS'undergraduatestudent57'
p681
aS'undergraduatestudent58'
p682
aS'undergraduatestudent59'
p683
aS'undergraduatestudent6'
p684
aS'undergraduatestudent60'
p685
aS'undergraduatestudent61'
p686
aS'undergraduatestudent62'
p687
aS'undergraduatestudent63'
p688
aS'undergraduatestudent64'
p689
aS'undergraduatestudent65'
p690
aS'undergraduatestudent66'
p691
aS'undergraduatestudent67'
p692
aS'undergraduatestudent68'
p693
aS'undergraduatestudent69'
p694
aS'undergraduatestudent7'
p695
aS'undergraduatestudent70'
p696
aS'undergraduatestudent71'
p697
aS'undergraduatestudent72'
p698
aS'undergraduatestudent73'
p699
aS'undergraduatestudent74'
p700
aS'undergraduatestudent75'
p701
aS'undergraduatestudent76'
p702
aS'undergraduatestudent77'
p703
aS'undergraduatestudent78'
p704
aS'undergraduatestudent79'
p705
aS'undergraduatestudent8'
p706
aS'undergraduatestudent80'
p707
aS'undergraduatestudent81'
p708
aS'undergraduatestudent82'
p709
aS'undergraduatestudent83'
p710
aS'undergraduatestudent84'
p711
aS'undergraduatestudent85'
p712
aS'undergraduatestudent86'
p713
aS'undergraduatestudent87'
p714
aS'undergraduatestudent88'
p715
aS'undergraduatestudent89'
p716
aS'undergraduatestudent9'
p717
aS'undergraduatestudent90'
p718
aS'undergraduatestudent91'
p719
aS'undergraduatestudent92'
p720
aS'undergraduatestudent93'
p721
aS'undergraduatestudent94'
p722
aS'undergraduatestudent95'
p723
aS'undergraduatestudent96'
p724
aS'undergraduatestudent97'
p725
aS'undergraduatestudent98'
p726
aS'undergraduatestudent99'
p727
asS'num_processes'
p728
I1
sS'_HierarchicalClustering__cluster_created'
p729
I01
sS'_data'
p730
(lp731
g0
(ccluster.cluster
Cluster
p732
g2
Ntp733
Rp734
(dp735
S'_Cluster__items'
p736
(lp737
g0
(g732
g2
Ntp738
Rp739
(dp740
g736
(lp741
g0
(g732
g2
Ntp742
Rp743
(dp744
g736
(lp745
g196
ag0
(g732
g2
Ntp746
Rp747
(dp748
g736
(lp749
g0
(g732
g2
Ntp750
Rp751
(dp752
g736
(lp753
g0
(g732
g2
Ntp754
Rp755
(dp756
g736
(lp757
g0
(g732
g2
Ntp758
Rp759
(dp760
g736
(lp761
g0
(g732
g2
Ntp762
Rp763
(dp764
g736
(lp765
g0
(g732
g2
Ntp766
Rp767
(dp768
g736
(lp769
g0
(g732
g2
Ntp770
Rp771
(dp772
g736
(lp773
g611
ag0
(g732
g2
Ntp774
Rp775
(dp776
g736
(lp777
g500
ag0
(g732
g2
Ntp778
Rp779
(dp780
g736
(lp781
g278
ag698
asS'_Cluster__level'
p782
F0.18518518518518523
sbasg782
F0.18518518518518523
sbasg782
F0.18518518518518523
sbag0
(g732
g2
Ntp783
Rp784
(dp785
g736
(lp786
g0
(g732
g2
Ntp787
Rp788
(dp789
g736
(lp790
g695
ag703
asg782
F0.12
sbag0
(g732
g2
Ntp791
Rp792
(dp793
g736
(lp794
g539
ag0
(g732
g2
Ntp795
Rp796
(dp797
g736
(lp798
g472
ag0
(g732
g2
Ntp799
Rp800
(dp801
g736
(lp802
g361
ag0
(g732
g2
Ntp803
Rp804
(dp805
g736
(lp806
g250
ag0
(g732
g2
Ntp807
Rp808
(dp809
g736
(lp810
g616
ag0
(g732
g2
Ntp811
Rp812
(dp813
g736
(lp814
g583
ag608
asg782
F0.11538461538461542
sbasg782
F0.11538461538461542
sbasg782
F0.18518518518518523
sbasg782
F0.18518518518518523
sbasg782
F0.18518518518518523
sbasg782
F0.18518518518518523
sbasg782
F0.18518518518518523
sbasg782
F0.18518518518518523
sbag0
(g732
g2
Ntp815
Rp816
(dp817
g736
(lp818
g0
(g732
g2
Ntp819
Rp820
(dp821
g736
(lp822
g612
ag0
(g732
g2
Ntp823
Rp824
(dp825
g736
(lp826
g390
ag0
(g732
g2
Ntp827
Rp828
(dp829
g736
(lp830
g279
ag699
asg782
F0.18518518518518523
sbasg782
F0.18518518518518523
sbasg782
F0.18518518518518523
sbag0
(g732
g2
Ntp831
Rp832
(dp833
g736
(lp834
g668
ag0
(g732
g2
Ntp835
Rp836
(dp837
g736
(lp838
g557
ag0
(g732
g2
Ntp839
Rp840
(dp841
g736
(lp842
g313
ag0
(g732
g2
Ntp843
Rp844
(dp845
g736
(lp846
g224
ag0
(g732
g2
Ntp847
Rp848
(dp849
g736
(lp850
g346
ag0
(g732
g2
Ntp851
Rp852
(dp853
g736
(lp854
g335
ag342
asg782
F0.11538461538461542
sbasg782
F0.11538461538461542
sbasg782
F0.18518518518518523
sbasg782
F0.18518518518518523
sbasg782
F0.18518518518518523
sbasg782
F0.18518518518518523
sbasg782
F0.18518518518518523
sbasg782
F0.18518518518518523
sbag0
(g732
g2
Ntp855
Rp856
(dp857
g736
(lp858
g0
(g732
g2
Ntp859
Rp860
(dp861
g736
(lp862
g0
(g732
g2
Ntp863
Rp864
(dp865
g736
(lp866
g614
ag0
(g732
g2
Ntp867
Rp868
(dp869
g736
(lp870
g503
ag0
(g732
g2
Ntp871
Rp872
(dp873
g736
(lp874
g392
ag0
(g732
g2
Ntp875
Rp876
(dp877
g736
(lp878
g281
ag701
asg782
F0.18518518518518523
sbasg782
F0.18518518518518523
sbasg782
F0.18518518518518523
sbasg782
F0.18518518518518523
sbag0
(g732
g2
Ntp879
Rp880
(dp881
g736
(lp882
g0
(g732
g2
Ntp883
Rp884
(dp885
g736
(lp886
g411
ag0
(g732
g2
Ntp887
Rp888
(dp889
g736
(lp890
g400
ag0
(g732
g2
Ntp891
Rp892
(dp893
g736
(lp894
g389
ag0
(g732
g2
Ntp895
Rp896
(dp897
g736
(lp898
g378
ag0
(g732
g2
Ntp899
Rp900
(dp901
g736
(lp902
g367
ag0
(g732
g2
Ntp903
Rp904
(dp905
g736
(lp906
g356
ag0
(g732
g2
Ntp907
Rp908
(dp909
g736
(lp910
g345
ag0
(g732
g2
Ntp911
Rp912
(dp913
g736
(lp914
g323
ag0
(g732
g2
Ntp915
Rp916
(dp917
g736
(lp918
g312
ag0
(g732
g2
Ntp919
Rp920
(dp921
g736
(lp922
g308
ag0
(g732
g2
Ntp923
Rp924
(dp925
g736
(lp926
g331
ag334
asg782
F0.040000000000000036
sbasg782
F0.12
sbasg782
F0.15384615384615385
sbasg782
F0.15384615384615385
sbasg782
F0.15384615384615385
sbasg782
F0.15384615384615385
sbasg782
F0.15384615384615385
sbasg782
F0.15384615384615385
sbasg782
F0.15384615384615385
sbasg782
F0.15384615384615385
sbasg782
F0.15384615384615385
sbag0
(g732
g2
Ntp927
Rp928
(dp929
g736
(lp930
g559
ag0
(g732
g2
Ntp931
Rp932
(dp933
g736
(lp934
g448
ag0
(g732
g2
Ntp935
Rp936
(dp937
g736
(lp938
g315
ag0
(g732
g2
Ntp939
Rp940
(dp941
g736
(lp942
g226
ag0
(g732
g2
Ntp943
Rp944
(dp945
g736
(lp946
g370
ag0
(g732
g2
Ntp947
Rp948
(dp949
g736
(lp950
g337
ag364
asg782
F0.11538461538461542
sbasg782
F0.11538461538461542
sbasg782
F0.18518518518518523
sbasg782
F0.18518518518518523
sbasg782
F0.18518518518518523
sbasg782
F0.18518518518518523
sbasg782
F0.18518518518518523
sbasg782
F0.18518518518518523
sbag0
(g732
g2
Ntp951
Rp952
(dp953
g736
(lp954
g0
(g732
g2
Ntp955
Rp956
(dp957
g736
(lp958
g615
ag0
(g732
g2
Ntp959
Rp960
(dp961
g736
(lp962
g504
ag0
(g732
g2
Ntp963
Rp964
(dp965
g736
(lp966
g393
ag0
(g732
g2
Ntp967
Rp968
(dp969
g736
(lp970
g282
ag702
asg782
F0.18518518518518523
sbasg782
F0.18518518518518523
sbasg782
F0.18518518518518523
sbasg782
F0.18518518518518523
sbag0
(g732
g2
Ntp971
Rp972
(dp973
g736
(lp974
g671
ag0
(g732
g2
Ntp975
Rp976
(dp977
g736
(lp978
g560
ag0
(g732
g2
Ntp979
Rp980
(dp981
g736
(lp982
g449
ag0
(g732
g2
Ntp983
Rp984
(dp985
g736
(lp986
g316
ag0
(g732
g2
Ntp987
Rp988
(dp989
g736
(lp990
g227
ag0
(g732
g2
Ntp991
Rp992
(dp993
g736
(lp994
g382
ag0
(g732
g2
Ntp995
Rp996
(dp997
g736
(lp998
g338
ag375
asg782
F0.11538461538461542
sbasg782
F0.11538461538461542
sbasg782
F0.18518518518518523
sbasg782
F0.18518518518518523
sbasg782
F0.18518518518518523
sbasg782
F0.18518518518518523
sbasg782
F0.18518518518518523
sbasg782
F0.18518518518518523
sbasg782
F0.18518518518518523
sbasg782
F0.18518518518518523
sbag0
(g732
g2
Ntp999
Rp1000
(dp1001
g736
(lp1002
g0
(g732
g2
Ntp1003
Rp1004
(dp1005
g736
(lp1006
g0
(g732
g2
Ntp1007
Rp1008
(dp1009
g736
(lp1010
g0
(g732
g2
Ntp1011
Rp1012
(dp1013
g736
(lp1014
g617
ag0
(g732
g2
Ntp1015
Rp1016
(dp1017
g736
(lp1018
g506
ag0
(g732
g2
Ntp1019
Rp1020
(dp1021
g736
(lp1022
g395
ag0
(g732
g2
Ntp1023
Rp1024
(dp1025
g736
(lp1026
g284
ag704
asg782
F0.18518518518518523
sbasg782
F0.18518518518518523
sbasg782
F0.18518518518518523
sbasg782
F0.18518518518518523
sbag0
(g732
g2
Ntp1027
Rp1028
(dp1029
g736
(lp1030
g673
ag0
(g732
g2
Ntp1031
Rp1032
(dp1033
g736
(lp1034
g562
ag0
(g732
g2
Ntp1035
Rp1036
(dp1037
g736
(lp1038
g451
ag0
(g732
g2
Ntp1039
Rp1040
(dp1041
g736
(lp1042
g318
ag0
(g732
g2
Ntp1043
Rp1044
(dp1045
g736
(lp1046
g229
ag0
(g732
g2
Ntp1047
Rp1048
(dp1049
g736
(lp1050
g406
ag0
(g732
g2
Ntp1051
Rp1052
(dp1053
g736
(lp1054
g340
ag397
asg782
F0.11538461538461542
sbasg782
F0.11538461538461542
sbasg782
F0.18518518518518523
sbasg782
F0.18518518518518523
sbasg782
F0.18518518518518523
sbasg782
F0.18518518518518523
sbasg782
F0.18518518518518523
sbasg782
F0.18518518518518523
sbag0
(g732
g2
Ntp1055
Rp1056
(dp1057
g736
(lp1058
g0
(g732
g2
Ntp1059
Rp1060
(dp1061
g736
(lp1062
g620
ag0
(g732
g2
Ntp1063
Rp1064
(dp1065
g736
(lp1066
g509
ag0
(g732
g2
Ntp1067
Rp1068
(dp1069
g736
(lp1070
g398
ag0
(g732
g2
Ntp1071
Rp1072
(dp1073
g736
(lp1074
g287
ag707
asg782
F0.18518518518518523
sbasg782
F0.18518518518518523
sbasg782
F0.18518518518518523
sbasg782
F0.18518518518518523
sbag0
(g732
g2
Ntp1075
Rp1076
(dp1077
g736
(lp1078
g665
ag0
(g732
g2
Ntp1079
Rp1080
(dp1081
g736
(lp1082
g554
ag0
(g732
g2
Ntp1083
Rp1084
(dp1085
g736
(lp1086
g443
ag0
(g732
g2
Ntp1087
Rp1088
(dp1089
g736
(lp1090
g311
ag0
(g732
g2
Ntp1091
Rp1092
(dp1093
g736
(lp1094
g332
ag0
(g732
g2
Ntp1095
Rp1096
(dp1097
g736
(lp1098
g309
ag310
asg782
F0.11538461538461542
sbasg782
F0.11538461538461542
sbasg782
F0.18518518518518523
sbasg782
F0.18518518518518523
sbasg782
F0.18518518518518523
sbasg782
F0.18518518518518523
sbasg782
F0.18518518518518523
sbasg782
F0.18518518518518523
sbag0
(g732
g2
Ntp1099
Rp1100
(dp1101
g736
(lp1102
g0
(g732
g2
Ntp1103
Rp1104
(dp1105
g736
(lp1106
g0
(g732
g2
Ntp1107
Rp1108
(dp1109
g736
(lp1110
g618
ag0
(g732
g2
Ntp1111
Rp1112
(dp1113
g736
(lp1114
g507
ag0
(g732
g2
Ntp1115
Rp1116
(dp1117
g736
(lp1118
g396
ag0
(g732
g2
Ntp1119
Rp1120
(dp1121
g736
(lp1122
g285
ag705
asg782
F0.18518518518518523
sbasg782
F0.18518518518518523
sbasg782
F0.18518518518518523
sbasg782
F0.18518518518518523
sbag0
(g732
g2
Ntp1123
Rp1124
(dp1125
g736
(lp1126
g674
ag0
(g732
g2
Ntp1127
Rp1128
(dp1129
g736
(lp1130
g563
ag0
(g732
g2
Ntp1131
Rp1132
(dp1133
g736
(lp1134
g452
ag0
(g732
g2
Ntp1135
Rp1136
(dp1137
g736
(lp1138
g319
ag0
(g732
g2
Ntp1139
Rp1140
(dp1141
g736
(lp1142
g230
ag0
(g732
g2
Ntp1143
Rp1144
(dp1145
g736
(lp1146
g418
ag0
(g732
g2
Ntp1147
Rp1148
(dp1149
g736
(lp1150
g341
ag408
asg782
F0.11538461538461542
sbasg782
F0.11538461538461542
sbasg782
F0.18518518518518523
sbasg782
F0.18518518518518523
sbasg782
F0.18518518518518523
sbasg782
F0.18518518518518523
sbasg782
F0.18518518518518523
sbasg782
F0.18518518518518523
sbag0
(g732
g2
Ntp1151
Rp1152
(dp1153
g736
(lp1154
g0
(g732
g2
Ntp1155
Rp1156
(dp1157
g736
(lp1158
g627
ag0
(g732
g2
Ntp1159
Rp1160
(dp1161
g736
(lp1162
g516
ag0
(g732
g2
Ntp1163
Rp1164
(dp1165
g736
(lp1166
g405
ag0
(g732
g2
Ntp1167
Rp1168
(dp1169
g736
(lp1170
g294
ag714
asg782
F0.18518518518518523
sbasg782
F0.18518518518518523
sbasg782
F0.18518518518518523
sbasg782
F0.18518518518518523
sbag0
(g732
g2
Ntp1171
Rp1172
(dp1173
g736
(lp1174
g0
(g732
g2
Ntp1175
Rp1176
(dp1177
g736
(lp1178
g502
ag0
(g732
g2
Ntp1179
Rp1180
(dp1181
g736
(lp1182
g391
ag0
(g732
g2
Ntp1183
Rp1184
(dp1185
g736
(lp1186
g280
ag700
asg782
F0.18518518518518523
sbasg782
F0.18518518518518523
sbasg782
F0.18518518518518523
sbag0
(g732
g2
Ntp1187
Rp1188
(dp1189
g736
(lp1190
g572
ag0
(g732
g2
Ntp1191
Rp1192
(dp1193
g736
(lp1194
g428
ag0
(g732
g2
Ntp1195
Rp1196
(dp1197
g736
(lp1198
g350
ag0
(g732
g2
Ntp1199
Rp1200
(dp1201
g736
(lp1202
g239
ag0
(g732
g2
Ntp1203
Rp1204
(dp1205
g736
(lp1206
g505
ag0
(g732
g2
Ntp1207
Rp1208
(dp1209
g736
(lp1210
g461
ag497
asg782
F0.11538461538461542
sbasg782
F0.11538461538461542
sbasg782
F0.18518518518518523
sbasg782
F0.18518518518518523
sbasg782
F0.18518518518518523
sbasg782
F0.18518518518518523
sbasg782
F0.18518518518518523
sbasg782
F0.18518518518518523
sbasg782
F0.18518518518518523
sbasg782
F0.18518518518518523
sbasg782
F0.18518518518518523
sbag0
(g732
g2
Ntp1211
Rp1212
(dp1213
g736
(lp1214
g0
(g732
g2
Ntp1215
Rp1216
(dp1217
g736
(lp1218
g0
(g732
g2
Ntp1219
Rp1220
(dp1221
g736
(lp1222
g0
(g732
g2
Ntp1223
Rp1224
(dp1225
g736
(lp1226
g0
(g732
g2
Ntp1227
Rp1228
(dp1229
g736
(lp1230
g621
ag0
(g732
g2
Ntp1231
Rp1232
(dp1233
g736
(lp1234
g510
ag0
(g732
g2
Ntp1235
Rp1236
(dp1237
g736
(lp1238
g399
ag708
asg782
F0.18518518518518523
sbasg782
F0.18518518518518523
sbasg782
F0.18518518518518523
sbag0
(g732
g2
Ntp1239
Rp1240
(dp1241
g736
(lp1242
g677
ag0
(g732
g2
Ntp1243
Rp1244
(dp1245
g736
(lp1246
g566
ag0
(g732
g2
Ntp1247
Rp1248
(dp1249
g736
(lp1250
g466
ag0
(g732
g2
Ntp1251
Rp1252
(dp1253
g736
(lp1254
g344
ag0
(g732
g2
Ntp1255
Rp1256
(dp1257
g736
(lp1258
g455
ag0
(g732
g2
Ntp1259
Rp1260
(dp1261
g736
(lp1262
g431
ag433
asg782
F0.11538461538461542
sbasg782
F0.11538461538461542
sbasg782
F0.18518518518518523
sbasg782
F0.18518518518518523
sbasg782
F0.18518518518518523
sbasg782
F0.18518518518518523
sbasg782
F0.18518518518518523
sbag0
(g732
g2
Ntp1263
Rp1264
(dp1265
g736
(lp1266
g0
(g732
g2
Ntp1267
Rp1268
(dp1269
g736
(lp1270
g622
ag0
(g732
g2
Ntp1271
Rp1272
(dp1273
g736
(lp1274
g511
ag0
(g732
g2
Ntp1275
Rp1276
(dp1277
g736
(lp1278
g289
ag709
asg782
F0.18518518518518523
sbasg782
F0.18518518518518523
sbasg782
F0.18518518518518523
sbag0
(g732
g2
Ntp1279
Rp1280
(dp1281
g736
(lp1282
g0
(g732
g2
Ntp1283
Rp1284
(dp1285
g736
(lp1286
g706
ag715
asg782
F0.12
sbag0
(g732
g2
Ntp1287
Rp1288
(dp1289
g736
(lp1290
g540
ag0
(g732
g2
Ntp1291
Rp1292
(dp1293
g736
(lp1294
g473
ag0
(g732
g2
Ntp1295
Rp1296
(dp1297
g736
(lp1298
g362
ag0
(g732
g2
Ntp1299
Rp1300
(dp1301
g736
(lp1302
g251
ag0
(g732
g2
Ntp1303
Rp1304
(dp1305
g736
(lp1306
g628
ag0
(g732
g2
Ntp1307
Rp1308
(dp1309
g736
(lp1310
g584
ag619
asg782
F0.11538461538461542
sbasg782
F0.11538461538461542
sbasg782
F0.18518518518518523
sbasg782
F0.18518518518518523
sbasg782
F0.18518518518518523
sbasg782
F0.18518518518518523
sbasg782
F0.18518518518518523
sbasg782
F0.18518518518518523
sbasg782
F0.18518518518518523
sbag0
(g732
g2
Ntp1311
Rp1312
(dp1313
g736
(lp1314
g0
(g732
g2
Ntp1315
Rp1316
(dp1317
g736
(lp1318
g0
(g732
g2
Ntp1319
Rp1320
(dp1321
g736
(lp1322
g623
ag0
(g732
g2
Ntp1323
Rp1324
(dp1325
g736
(lp1326
g401
ag0
(g732
g2
Ntp1327
Rp1328
(dp1329
g736
(lp1330
g290
ag710
asg782
F0.18518518518518523
sbasg782
F0.18518518518518523
sbasg782
F0.18518518518518523
sbag0
(g732
g2
Ntp1331
Rp1332
(dp1333
g736
(lp1334
g0
(g732
g2
Ntp1335
Rp1336
(dp1337
g736
(lp1338
g523
ag0
(g732
g2
Ntp1339
Rp1340
(dp1341
g736
(lp1342
g512
ag0
(g732
g2
Ntp1343
Rp1344
(dp1345
g736
(lp1346
g501
ag0
(g732
g2
Ntp1347
Rp1348
(dp1349
g736
(lp1350
g490
ag0
(g732
g2
Ntp1351
Rp1352
(dp1353
g736
(lp1354
g479
ag0
(g732
g2
Ntp1355
Rp1356
(dp1357
g736
(lp1358
g468
ag0
(g732
g2
Ntp1359
Rp1360
(dp1361
g736
(lp1362
g446
ag0
(g732
g2
Ntp1363
Rp1364
(dp1365
g736
(lp1366
g435
ag0
(g732
g2
Ntp1367
Rp1368
(dp1369
g736
(lp1370
g424
ag0
(g732
g2
Ntp1371
Rp1372
(dp1373
g736
(lp1374
g419
ag0
(g732
g2
Ntp1375
Rp1376
(dp1377
g736
(lp1378
g453
ag457
asg782
F0.040000000000000036
sbasg782
F0.12
sbasg782
F0.15384615384615385
sbasg782
F0.15384615384615385
sbasg782
F0.15384615384615385
sbasg782
F0.15384615384615385
sbasg782
F0.15384615384615385
sbasg782
F0.15384615384615385
sbasg782
F0.15384615384615385
sbasg782
F0.15384615384615385
sbasg782
F0.15384615384615385
sbag0
(g732
g2
Ntp1379
Rp1380
(dp1381
g736
(lp1382
g425
ag0
(g732
g2
Ntp1383
Rp1384
(dp1385
g736
(lp1386
g347
ag0
(g732
g2
Ntp1387
Rp1388
(dp1389
g736
(lp1390
g236
ag0
(g732
g2
Ntp1391
Rp1392
(dp1393
g736
(lp1394
g469
ag0
(g732
g2
Ntp1395
Rp1396
(dp1397
g736
(lp1398
g458
ag464
asg782
F0.11538461538461542
sbasg782
F0.11538461538461542
sbasg782
F0.18518518518518523
sbasg782
F0.18518518518518523
sbasg782
F0.18518518518518523
sbasg782
F0.18518518518518523
sbasg782
F0.18518518518518523
sbag0
(g732
g2
Ntp1399
Rp1400
(dp1401
g736
(lp1402
g0
(g732
g2
Ntp1403
Rp1404
(dp1405
g736
(lp1406
g625
ag0
(g732
g2
Ntp1407
Rp1408
(dp1409
g736
(lp1410
g514
ag0
(g732
g2
Ntp1411
Rp1412
(dp1413
g736
(lp1414
g403
ag0
(g732
g2
Ntp1415
Rp1416
(dp1417
g736
(lp1418
g292
ag712
asg782
F0.18518518518518523
sbasg782
F0.18518518518518523
sbasg782
F0.18518518518518523
sbasg782
F0.18518518518518523
sbag0
(g732
g2
Ntp1419
Rp1420
(dp1421
g736
(lp1422
g0
(g732
g2
Ntp1423
Rp1424
(dp1425
g736
(lp1426
g670
ag0
(g732
g2
Ntp1427
Rp1428
(dp1429
g736
(lp1430
g659
ag0
(g732
g2
Ntp1431
Rp1432
(dp1433
g736
(lp1434
g648
ag0
(g732
g2
Ntp1435
Rp1436
(dp1437
g736
(lp1438
g641
ag679
asg782
F0.12
sbasg782
F0.15384615384615385
sbasg782
F0.15384615384615385
sbasg782
F0.15384615384615385
sbag0
(g732
g2
Ntp1439
Rp1440
(dp1441
g736
(lp1442
g537
ag0
(g732
g2
Ntp1443
Rp1444
(dp1445
g736
(lp1446
g470
ag0
(g732
g2
Ntp1447
Rp1448
(dp1449
g736
(lp1450
g359
ag0
(g732
g2
Ntp1451
Rp1452
(dp1453
g736
(lp1454
g248
ag0
(g732
g2
Ntp1455
Rp1456
(dp1457
g736
(lp1458
g592
ag0
(g732
g2
Ntp1459
Rp1460
(dp1461
g736
(lp1462
g581
ag586
asg782
F0.11538461538461542
sbasg782
F0.11538461538461542
sbasg782
F0.18518518518518523
sbasg782
F0.18518518518518523
sbasg782
F0.18518518518518523
sbasg782
F0.18518518518518523
sbasg782
F0.18518518518518523
sbasg782
F0.18518518518518523
sbasg782
F0.18518518518518523
sbasg782
F0.18518518518518523
sbag0
(g732
g2
Ntp1463
Rp1464
(dp1465
g736
(lp1466
g0
(g732
g2
Ntp1467
Rp1468
(dp1469
g736
(lp1470
g0
(g732
g2
Ntp1471
Rp1472
(dp1473
g736
(lp1474
g0
(g732
g2
Ntp1475
Rp1476
(dp1477
g736
(lp1478
g626
ag0
(g732
g2
Ntp1479
Rp1480
(dp1481
g736
(lp1482
g515
ag0
(g732
g2
Ntp1483
Rp1484
(dp1485
g736
(lp1486
g404
ag0
(g732
g2
Ntp1487
Rp1488
(dp1489
g736
(lp1490
g293
ag713
asg782
F0.18518518518518523
sbasg782
F0.18518518518518523
sbasg782
F0.18518518518518523
sbasg782
F0.18518518518518523
sbag0
(g732
g2
Ntp1491
Rp1492
(dp1493
g736
(lp1494
g0
(g732
g2
Ntp1495
Rp1496
(dp1497
g736
(lp1498
g684
ag691
asg782
F0.12
sbag0
(g732
g2
Ntp1499
Rp1500
(dp1501
g736
(lp1502
g538
ag0
(g732
g2
Ntp1503
Rp1504
(dp1505
g736
(lp1506
g471
ag0
(g732
g2
Ntp1507
Rp1508
(dp1509
g736
(lp1510
g360
ag0
(g732
g2
Ntp1511
Rp1512
(dp1513
g736
(lp1514
g249
ag0
(g732
g2
Ntp1515
Rp1516
(dp1517
g736
(lp1518
g604
ag0
(g732
g2
Ntp1519
Rp1520
(dp1521
g736
(lp1522
g582
ag597
asg782
F0.11538461538461542
sbasg782
F0.11538461538461542
sbasg782
F0.18518518518518523
sbasg782
F0.18518518518518523
sbasg782
F0.18518518518518523
sbasg782
F0.18518518518518523
sbasg782
F0.18518518518518523
sbasg782
F0.18518518518518523
sbag0
(g732
g2
Ntp1523
Rp1524
(dp1525
g736
(lp1526
g0
(g732
g2
Ntp1527
Rp1528
(dp1529
g736
(lp1530
g634
ag0
(g732
g2
Ntp1531
Rp1532
(dp1533
g736
(lp1534
g412
ag0
(g732
g2
Ntp1535
Rp1536
(dp1537
g736
(lp1538
g301
ag721
asg782
F0.18518518518518523
sbasg782
F0.18518518518518523
sbasg782
F0.18518518518518523
sbag0
(g732
g2
Ntp1539
Rp1540
(dp1541
g736
(lp1542
g0
(g732
g2
Ntp1543
Rp1544
(dp1545
g736
(lp1546
g534
ag0
(g732
g2
Ntp1547
Rp1548
(dp1549
g736
(lp1550
g465
ag0
(g732
g2
Ntp1551
Rp1552
(dp1553
g736
(lp1554
g354
ag0
(g732
g2
Ntp1555
Rp1556
(dp1557
g736
(lp1558
g243
ag0
(g732
g2
Ntp1559
Rp1560
(dp1561
g736
(lp1562
g576
ag0
(g732
g2
Ntp1563
Rp1564
(dp1565
g736
(lp1566
g531
ag532
asg782
F0.11538461538461542
sbasg782
F0.11538461538461542
sbasg782
F0.18518518518518523
sbasg782
F0.18518518518518523
sbasg782
F0.18518518518518523
sbasg782
F0.18518518518518523
sbag0
(g732
g2
Ntp1567
Rp1568
(dp1569
g736
(lp1570
g535
ag0
(g732
g2
Ntp1571
Rp1572
(dp1573
g736
(lp1574
g357
ag0
(g732
g2
Ntp1575
Rp1576
(dp1577
g736
(lp1578
g246
ag0
(g732
g2
Ntp1579
Rp1580
(dp1581
g736
(lp1582
g579
ag0
(g732
g2
Ntp1583
Rp1584
(dp1585
g736
(lp1586
g564
ag568
asg782
F0.11538461538461542
sbasg782
F0.11538461538461542
sbasg782
F0.18518518518518523
sbasg782
F0.18518518518518523
sbasg782
F0.18518518518518523
sbasg782
F0.18518518518518523
sbasg782
F0.18518518518518523
sbasg782
F0.18518518518518523
sbag0
(g732
g2
Ntp1587
Rp1588
(dp1589
g736
(lp1590
g0
(g732
g2
Ntp1591
Rp1592
(dp1593
g736
(lp1594
g0
(g732
g2
Ntp1595
Rp1596
(dp1597
g736
(lp1598
g629
ag0
(g732
g2
Ntp1599
Rp1600
(dp1601
g736
(lp1602
g518
ag0
(g732
g2
Ntp1603
Rp1604
(dp1605
g736
(lp1606
g407
ag0
(g732
g2
Ntp1607
Rp1608
(dp1609
g736
(lp1610
g296
ag716
asg782
F0.18518518518518523
sbasg782
F0.18518518518518523
sbasg782
F0.18518518518518523
sbasg782
F0.18518518518518523
sbag0
(g732
g2
Ntp1611
Rp1612
(dp1613
g736
(lp1614
g0
(g732
g2
Ntp1615
Rp1616
(dp1617
g736
(lp1618
g717
ag727
asg782
F0.12
sbag0
(g732
g2
Ntp1619
Rp1620
(dp1621
g736
(lp1622
g541
ag0
(g732
g2
Ntp1623
Rp1624
(dp1625
g736
(lp1626
g474
ag0
(g732
g2
Ntp1627
Rp1628
(dp1629
g736
(lp1630
g363
ag0
(g732
g2
Ntp1631
Rp1632
(dp1633
g736
(lp1634
g252
ag0
(g732
g2
Ntp1635
Rp1636
(dp1637
g736
(lp1638
g640
ag0
(g732
g2
Ntp1639
Rp1640
(dp1641
g736
(lp1642
g585
ag630
asg782
F0.11538461538461542
sbasg782
F0.11538461538461542
sbasg782
F0.18518518518518523
sbasg782
F0.18518518518518523
sbasg782
F0.18518518518518523
sbasg782
F0.18518518518518523
sbasg782
F0.18518518518518523
sbasg782
F0.18518518518518523
sbag0
(g732
g2
Ntp1643
Rp1644
(dp1645
g736
(lp1646
g0
(g732
g2
Ntp1647
Rp1648
(dp1649
g736
(lp1650
g631
ag0
(g732
g2
Ntp1651
Rp1652
(dp1653
g736
(lp1654
g520
ag0
(g732
g2
Ntp1655
Rp1656
(dp1657
g736
(lp1658
g409
ag0
(g732
g2
Ntp1659
Rp1660
(dp1661
g736
(lp1662
g298
ag718
asg782
F0.18518518518518523
sbasg782
F0.18518518518518523
sbasg782
F0.18518518518518523
sbasg782
F0.18518518518518523
sbag0
(g732
g2
Ntp1663
Rp1664
(dp1665
g736
(lp1666
g676
ag0
(g732
g2
Ntp1667
Rp1668
(dp1669
g736
(lp1670
g565
ag0
(g732
g2
Ntp1671
Rp1672
(dp1673
g736
(lp1674
g422
ag0
(g732
g2
Ntp1675
Rp1676
(dp1677
g736
(lp1678
g343
ag0
(g732
g2
Ntp1679
Rp1680
(dp1681
g736
(lp1682
g232
ag0
(g732
g2
Ntp1683
Rp1684
(dp1685
g736
(lp1686
g454
ag0
(g732
g2
Ntp1687
Rp1688
(dp1689
g736
(lp1690
g420
ag421
asg782
F0.11538461538461542
sbasg782
F0.11538461538461542
sbasg782
F0.18518518518518523
sbasg782
F0.18518518518518523
sbasg782
F0.18518518518518523
sbasg782
F0.18518518518518523
sbasg782
F0.18518518518518523
sbasg782
F0.18518518518518523
sbasg782
F0.18518518518518523
sbasg782
F0.18518518518518523
sbasg782
F0.18518518518518523
sbasg782
F0.18518518518518523
sbag0
(g732
g2
Ntp1691
Rp1692
(dp1693
g736
(lp1694
g0
(g732
g2
Ntp1695
Rp1696
(dp1697
g736
(lp1698
g0
(g732
g2
Ntp1699
Rp1700
(dp1701
g736
(lp1702
g0
(g732
g2
Ntp1703
Rp1704
(dp1705
g736
(lp1706
g0
(g732
g2
Ntp1707
Rp1708
(dp1709
g736
(lp1710
g0
(g732
g2
Ntp1711
Rp1712
(dp1713
g736
(lp1714
g632
ag0
(g732
g2
Ntp1715
Rp1716
(dp1717
g736
(lp1718
g521
ag0
(g732
g2
Ntp1719
Rp1720
(dp1721
g736
(lp1722
g410
ag719
asg782
F0.18518518518518523
sbasg782
F0.18518518518518523
sbasg782
F0.18518518518518523
sbag0
(g732
g2
Ntp1723
Rp1724
(dp1725
g736
(lp1726
g0
(g732
g2
Ntp1727
Rp1728
(dp1729
g736
(lp1730
g299
ag0
(g732
g2
Ntp1731
Rp1732
(dp1733
g736
(lp1734
g288
ag0
(g732
g2
Ntp1735
Rp1736
(dp1737
g736
(lp1738
g277
ag0
(g732
g2
Ntp1739
Rp1740
(dp1741
g736
(lp1742
g266
ag0
(g732
g2
Ntp1743
Rp1744
(dp1745
g736
(lp1746
g255
ag0
(g732
g2
Ntp1747
Rp1748
(dp1749
g736
(lp1750
g244
ag0
(g732
g2
Ntp1751
Rp1752
(dp1753
g736
(lp1754
g233
ag0
(g732
g2
Ntp1755
Rp1756
(dp1757
g736
(lp1758
g222
ag0
(g732
g2
Ntp1759
Rp1760
(dp1761
g736
(lp1762
g200
ag0
(g732
g2
Ntp1763
Rp1764
(dp1765
g736
(lp1766
g197
ag0
(g732
g2
Ntp1767
Rp1768
(dp1769
g736
(lp1770
g209
ag211
asg782
F0.040000000000000036
sbasg782
F0.12
sbasg782
F0.15384615384615385
sbasg782
F0.15384615384615385
sbasg782
F0.15384615384615385
sbasg782
F0.15384615384615385
sbasg782
F0.15384615384615385
sbasg782
F0.15384615384615385
sbasg782
F0.15384615384615385
sbasg782
F0.15384615384615385
sbasg782
F0.15384615384615385
sbag0
(g732
g2
Ntp1771
Rp1772
(dp1773
g736
(lp1774
g533
ag0
(g732
g2
Ntp1775
Rp1776
(dp1777
g736
(lp1778
g355
ag0
(g732
g2
Ntp1779
Rp1780
(dp1781
g736
(lp1782
g577
ag0
(g732
g2
Ntp1783
Rp1784
(dp1785
g736
(lp1786
g542
ag544
asg782
F0.11538461538461542
sbasg782
F0.11538461538461542
sbasg782
F0.18518518518518523
sbasg782
F0.18518518518518523
sbasg782
F0.18518518518518523
sbasg782
F0.18518518518518523
sbag0
(g732
g2
Ntp1787
Rp1788
(dp1789
g736
(lp1790
g0
(g732
g2
Ntp1791
Rp1792
(dp1793
g736
(lp1794
g633
ag0
(g732
g2
Ntp1795
Rp1796
(dp1797
g736
(lp1798
g522
ag0
(g732
g2
Ntp1799
Rp1800
(dp1801
g736
(lp1802
g300
ag720
asg782
F0.18518518518518523
sbasg782
F0.18518518518518523
sbasg782
F0.18518518518518523
sbag0
(g732
g2
Ntp1803
Rp1804
(dp1805
g736
(lp1806
g0
(g732
g2
Ntp1807
Rp1808
(dp1809
g736
(lp1810
g524
ag0
(g732
g2
Ntp1811
Rp1812
(dp1813
g736
(lp1814
g413
ag0
(g732
g2
Ntp1815
Rp1816
(dp1817
g736
(lp1818
g302
ag722
asg782
F0.18518518518518523
sbasg782
F0.18518518518518523
sbasg782
F0.18518518518518523
sbag0
(g732
g2
Ntp1819
Rp1820
(dp1821
g736
(lp1822
g574
ag0
(g732
g2
Ntp1823
Rp1824
(dp1825
g736
(lp1826
g430
ag0
(g732
g2
Ntp1827
Rp1828
(dp1829
g736
(lp1830
g352
ag0
(g732
g2
Ntp1831
Rp1832
(dp1833
g736
(lp1834
g241
ag0
(g732
g2
Ntp1835
Rp1836
(dp1837
g736
(lp1838
g529
ag0
(g732
g2
Ntp1839
Rp1840
(dp1841
g736
(lp1842
g463
ag519
asg782
F0.11538461538461542
sbasg782
F0.11538461538461542
sbasg782
F0.18518518518518523
sbasg782
F0.18518518518518523
sbasg782
F0.18518518518518523
sbasg782
F0.18518518518518523
sbasg782
F0.18518518518518523
sbasg782
F0.18518518518518523
sbasg782
F0.18518518518518523
sbag0
(g732
g2
Ntp1843
Rp1844
(dp1845
g736
(lp1846
g0
(g732
g2
Ntp1847
Rp1848
(dp1849
g736
(lp1850
g0
(g732
g2
Ntp1851
Rp1852
(dp1853
g736
(lp1854
g636
ag0
(g732
g2
Ntp1855
Rp1856
(dp1857
g736
(lp1858
g525
ag0
(g732
g2
Ntp1859
Rp1860
(dp1861
g736
(lp1862
g414
ag0
(g732
g2
Ntp1863
Rp1864
(dp1865
g736
(lp1866
g303
ag723
asg782
F0.18518518518518523
sbasg782
F0.18518518518518523
sbasg782
F0.18518518518518523
sbasg782
F0.18518518518518523
sbag0
(g732
g2
Ntp1867
Rp1868
(dp1869
g736
(lp1870
g0
(g732
g2
Ntp1871
Rp1872
(dp1873
g736
(lp1874
g548
ag0
(g732
g2
Ntp1875
Rp1876
(dp1877
g736
(lp1878
g437
ag0
(g732
g2
Ntp1879
Rp1880
(dp1881
g736
(lp1882
g326
ag0
(g732
g2
Ntp1883
Rp1884
(dp1885
g736
(lp1886
g204
ag0
(g732
g2
Ntp1887
Rp1888
(dp1889
g736
(lp1890
g259
ag0
(g732
g2
Ntp1891
Rp1892
(dp1893
g736
(lp1894
g215
ag253
asg782
F0.11538461538461542
sbasg782
F0.11538461538461542
sbasg782
F0.18518518518518523
sbasg782
F0.18518518518518523
sbasg782
F0.18518518518518523
sbasg782
F0.18518518518518523
sbag0
(g732
g2
Ntp1895
Rp1896
(dp1897
g736
(lp1898
g570
ag0
(g732
g2
Ntp1899
Rp1900
(dp1901
g736
(lp1902
g426
ag0
(g732
g2
Ntp1903
Rp1904
(dp1905
g736
(lp1906
g348
ag0
(g732
g2
Ntp1907
Rp1908
(dp1909
g736
(lp1910
g237
ag0
(g732
g2
Ntp1911
Rp1912
(dp1913
g736
(lp1914
g481
ag0
(g732
g2
Ntp1915
Rp1916
(dp1917
g736
(lp1918
g459
ag475
asg782
F0.11538461538461542
sbasg782
F0.11538461538461542
sbasg782
F0.18518518518518523
sbasg782
F0.18518518518518523
sbasg782
F0.18518518518518523
sbasg782
F0.18518518518518523
sbasg782
F0.18518518518518523
sbasg782
F0.18518518518518523
sbag0
(g732
g2
Ntp1919
Rp1920
(dp1921
g736
(lp1922
g0
(g732
g2
Ntp1923
Rp1924
(dp1925
g736
(lp1926
g645
ag0
(g732
g2
Ntp1927
Rp1928
(dp1929
g736
(lp1930
g478
ag0
(g732
g2
Ntp1931
Rp1932
(dp1933
g736
(lp1934
g256
ag0
(g732
g2
Ntp1935
Rp1936
(dp1937
g736
(lp1938
g664
ag667
asg782
F0.11538461538461542
sbasg782
F0.18518518518518523
sbasg782
F0.18518518518518523
sbasg782
F0.18518518518518523
sbag0
(g732
g2
Ntp1939
Rp1940
(dp1941
g736
(lp1942
g669
ag0
(g732
g2
Ntp1943
Rp1944
(dp1945
g736
(lp1946
g447
ag0
(g732
g2
Ntp1947
Rp1948
(dp1949
g736
(lp1950
g314
ag0
(g732
g2
Ntp1951
Rp1952
(dp1953
g736
(lp1954
g225
ag0
(g732
g2
Ntp1955
Rp1956
(dp1957
g736
(lp1958
g358
ag0
(g732
g2
Ntp1959
Rp1960
(dp1961
g736
(lp1962
g336
ag353
asg782
F0.11538461538461542
sbasg782
F0.11538461538461542
sbasg782
F0.18518518518518523
sbasg782
F0.18518518518518523
sbasg782
F0.18518518518518523
sbasg782
F0.18518518518518523
sbasg782
F0.18518518518518523
sbasg782
F0.18518518518518523
sbasg782
F0.18518518518518523
sbag0
(g732
g2
Ntp1963
Rp1964
(dp1965
g736
(lp1966
g0
(g732
g2
Ntp1967
Rp1968
(dp1969
g736
(lp1970
g0
(g732
g2
Ntp1971
Rp1972
(dp1973
g736
(lp1974
g0
(g732
g2
Ntp1975
Rp1976
(dp1977
g736
(lp1978
g637
ag0
(g732
g2
Ntp1979
Rp1980
(dp1981
g736
(lp1982
g526
ag0
(g732
g2
Ntp1983
Rp1984
(dp1985
g736
(lp1986
g415
ag0
(g732
g2
Ntp1987
Rp1988
(dp1989
g736
(lp1990
g304
ag724
asg782
F0.18518518518518523
sbasg782
F0.18518518518518523
sbasg782
F0.18518518518518523
sbasg782
F0.18518518518518523
sbag0
(g732
g2
Ntp1991
Rp1992
(dp1993
g736
(lp1994
g0
(g732
g2
Ntp1995
Rp1996
(dp1997
g736
(lp1998
g571
ag0
(g732
g2
Ntp1999
Rp2000
(dp2001
g736
(lp2002
g427
ag0
(g732
g2
Ntp2003
Rp2004
(dp2005
g736
(lp2006
g349
ag0
(g732
g2
Ntp2007
Rp2008
(dp2009
g736
(lp2010
g238
ag0
(g732
g2
Ntp2011
Rp2012
(dp2013
g736
(lp2014
g493
ag0
(g732
g2
Ntp2015
Rp2016
(dp2017
g736
(lp2018
g460
ag486
asg782
F0.11538461538461542
sbasg782
F0.11538461538461542
sbasg782
F0.18518518518518523
sbasg782
F0.18518518518518523
sbasg782
F0.18518518518518523
sbasg782
F0.18518518518518523
sbag0
(g732
g2
Ntp2019
Rp2020
(dp2021
g736
(lp2022
g598
ag0
(g732
g2
Ntp2023
Rp2024
(dp2025
g736
(lp2026
g487
ag0
(g732
g2
Ntp2027
Rp2028
(dp2029
g736
(lp2030
g376
ag0
(g732
g2
Ntp2031
Rp2032
(dp2033
g736
(lp2034
g265
ag685
asg782
F0.18518518518518523
sbasg782
F0.18518518518518523
sbasg782
F0.18518518518518523
sbasg782
F0.18518518518518523
sbasg782
F0.18518518518518523
sbasg782
F0.18518518518518523
sbag0
(g732
g2
Ntp2035
Rp2036
(dp2037
g736
(lp2038
g0
(g732
g2
Ntp2039
Rp2040
(dp2041
g736
(lp2042
g638
ag0
(g732
g2
Ntp2043
Rp2044
(dp2045
g736
(lp2046
g527
ag0
(g732
g2
Ntp2047
Rp2048
(dp2049
g736
(lp2050
g416
ag0
(g732
g2
Ntp2051
Rp2052
(dp2053
g736
(lp2054
g305
ag725
asg782
F0.18518518518518523
sbasg782
F0.18518518518518523
sbasg782
F0.18518518518518523
sbasg782
F0.18518518518518523
sbag0
(g732
g2
Ntp2055
Rp2056
(dp2057
g736
(lp2058
g0
(g732
g2
Ntp2059
Rp2060
(dp2061
g736
(lp2062
g605
ag0
(g732
g2
Ntp2063
Rp2064
(dp2065
g736
(lp2066
g494
ag0
(g732
g2
Ntp2067
Rp2068
(dp2069
g736
(lp2070
g383
ag0
(g732
g2
Ntp2071
Rp2072
(dp2073
g736
(lp2074
g272
ag692
asg782
F0.18518518518518523
sbasg782
F0.18518518518518523
sbasg782
F0.18518518518518523
sbasg782
F0.18518518518518523
sbag0
(g732
g2
Ntp2075
Rp2076
(dp2077
g736
(lp2078
g661
ag0
(g732
g2
Ntp2079
Rp2080
(dp2081
g736
(lp2082
g550
ag0
(g732
g2
Ntp2083
Rp2084
(dp2085
g736
(lp2086
g439
ag0
(g732
g2
Ntp2087
Rp2088
(dp2089
g736
(lp2090
g328
ag0
(g732
g2
Ntp2091
Rp2092
(dp2093
g736
(lp2094
g206
ag0
(g732
g2
Ntp2095
Rp2096
(dp2097
g736
(lp2098
g283
ag0
(g732
g2
Ntp2099
Rp2100
(dp2101
g736
(lp2102
g217
ag275
asg782
F0.11538461538461542
sbasg782
F0.11538461538461542
sbasg782
F0.18518518518518523
sbasg782
F0.18518518518518523
sbasg782
F0.18518518518518523
sbasg782
F0.18518518518518523
sbasg782
F0.18518518518518523
sbasg782
F0.18518518518518523
sbasg782
F0.18518518518518523
sbasg782
F0.18518518518518523
sbag0
(g732
g2
Ntp2103
Rp2104
(dp2105
g736
(lp2106
g0
(g732
g2
Ntp2107
Rp2108
(dp2109
g736
(lp2110
g0
(g732
g2
Ntp2111
Rp2112
(dp2113
g736
(lp2114
g646
ag0
(g732
g2
Ntp2115
Rp2116
(dp2117
g736
(lp2118
g590
ag0
(g732
g2
Ntp2119
Rp2120
(dp2121
g736
(lp2122
g368
ag0
(g732
g2
Ntp2123
Rp2124
(dp2125
g736
(lp2126
g257
ag675
asg782
F0.18518518518518523
sbasg782
F0.18518518518518523
sbasg782
F0.18518518518518523
sbasg782
F0.18518518518518523
sbag0
(g732
g2
Ntp2127
Rp2128
(dp2129
g736
(lp2130
g0
(g732
g2
Ntp2131
Rp2132
(dp2133
g736
(lp2134
g588
ag0
(g732
g2
Ntp2135
Rp2136
(dp2137
g736
(lp2138
g477
ag0
(g732
g2
Ntp2139
Rp2140
(dp2141
g736
(lp2142
g366
ag0
(g732
g2
Ntp2143
Rp2144
(dp2145
g736
(lp2146
g653
ag655
asg782
F0.11538461538461542
sbasg782
F0.18518518518518523
sbasg782
F0.18518518518518523
sbasg782
F0.18518518518518523
sbag0
(g732
g2
Ntp2147
Rp2148
(dp2149
g736
(lp2150
g644
ag0
(g732
g2
Ntp2151
Rp2152
(dp2153
g736
(lp2154
g587
ag0
(g732
g2
Ntp2155
Rp2156
(dp2157
g736
(lp2158
g476
ag0
(g732
g2
Ntp2159
Rp2160
(dp2161
g736
(lp2162
g365
ag0
(g732
g2
Ntp2163
Rp2164
(dp2165
g736
(lp2166
g254
ag0
(g732
g2
Ntp2167
Rp2168
(dp2169
g736
(lp2170
g642
ag643
asg782
F0.11538461538461542
sbasg782
F0.18518518518518523
sbasg782
F0.18518518518518523
sbasg782
F0.18518518518518523
sbasg782
F0.18518518518518523
sbasg782
F0.18518518518518523
sbasg782
F0.18518518518518523
sbasg782
F0.18518518518518523
sbag0
(g732
g2
Ntp2171
Rp2172
(dp2173
g736
(lp2174
g0
(g732
g2
Ntp2175
Rp2176
(dp2177
g736
(lp2178
g649
ag0
(g732
g2
Ntp2179
Rp2180
(dp2181
g736
(lp2182
g593
ag0
(g732
g2
Ntp2183
Rp2184
(dp2185
g736
(lp2186
g482
ag0
(g732
g2
Ntp2187
Rp2188
(dp2189
g736
(lp2190
g371
ag0
(g732
g2
Ntp2191
Rp2192
(dp2193
g736
(lp2194
g260
ag680
asg782
F0.18518518518518523
sbasg782
F0.18518518518518523
sbasg782
F0.18518518518518523
sbasg782
F0.18518518518518523
sbasg782
F0.18518518518518523
sbag0
(g732
g2
Ntp2195
Rp2196
(dp2197
g736
(lp2198
g0
(g732
g2
Ntp2199
Rp2200
(dp2201
g736
(lp2202
g603
ag0
(g732
g2
Ntp2203
Rp2204
(dp2205
g736
(lp2206
g492
ag0
(g732
g2
Ntp2207
Rp2208
(dp2209
g736
(lp2210
g381
ag0
(g732
g2
Ntp2211
Rp2212
(dp2213
g736
(lp2214
g270
ag690
asg782
F0.18518518518518523
sbasg782
F0.18518518518518523
sbasg782
F0.18518518518518523
sbasg782
F0.18518518518518523
sbag0
(g732
g2
Ntp2215
Rp2216
(dp2217
g736
(lp2218
g660
ag0
(g732
g2
Ntp2219
Rp2220
(dp2221
g736
(lp2222
g549
ag0
(g732
g2
Ntp2223
Rp2224
(dp2225
g736
(lp2226
g438
ag0
(g732
g2
Ntp2227
Rp2228
(dp2229
g736
(lp2230
g327
ag0
(g732
g2
Ntp2231
Rp2232
(dp2233
g736
(lp2234
g205
ag0
(g732
g2
Ntp2235
Rp2236
(dp2237
g736
(lp2238
g271
ag0
(g732
g2
Ntp2239
Rp2240
(dp2241
g736
(lp2242
g216
ag264
asg782
F0.11538461538461542
sbasg782
F0.11538461538461542
sbasg782
F0.18518518518518523
sbasg782
F0.18518518518518523
sbasg782
F0.18518518518518523
sbasg782
F0.18518518518518523
sbasg782
F0.18518518518518523
sbasg782
F0.18518518518518523
sbasg782
F0.18518518518518523
sbasg782
F0.18518518518518523
sbasg782
F0.18518518518518523
sbasg782
F0.18518518518518523
sbag0
(g732
g2
Ntp2243
Rp2244
(dp2245
g736
(lp2246
g0
(g732
g2
Ntp2247
Rp2248
(dp2249
g736
(lp2250
g0
(g732
g2
Ntp2251
Rp2252
(dp2253
g736
(lp2254
g0
(g732
g2
Ntp2255
Rp2256
(dp2257
g736
(lp2258
g0
(g732
g2
Ntp2259
Rp2260
(dp2261
g736
(lp2262
g639
ag0
(g732
g2
Ntp2263
Rp2264
(dp2265
g736
(lp2266
g528
ag0
(g732
g2
Ntp2267
Rp2268
(dp2269
g736
(lp2270
g417
ag0
(g732
g2
Ntp2271
Rp2272
(dp2273
g736
(lp2274
g306
ag726
asg782
F0.18518518518518523
sbasg782
F0.18518518518518523
sbasg782
F0.18518518518518523
sbasg782
F0.18518518518518523
sbag0
(g732
g2
Ntp2275
Rp2276
(dp2277
g736
(lp2278
g0
(g732
g2
Ntp2279
Rp2280
(dp2281
g736
(lp2282
g513
ag0
(g732
g2
Ntp2283
Rp2284
(dp2285
g736
(lp2286
g402
ag0
(g732
g2
Ntp2287
Rp2288
(dp2289
g736
(lp2290
g291
ag711
asg782
F0.18518518518518523
sbasg782
F0.18518518518518523
sbasg782
F0.18518518518518523
sbag0
(g732
g2
Ntp2291
Rp2292
(dp2293
g736
(lp2294
g573
ag0
(g732
g2
Ntp2295
Rp2296
(dp2297
g736
(lp2298
g429
ag0
(g732
g2
Ntp2299
Rp2300
(dp2301
g736
(lp2302
g351
ag0
(g732
g2
Ntp2303
Rp2304
(dp2305
g736
(lp2306
g240
ag0
(g732
g2
Ntp2307
Rp2308
(dp2309
g736
(lp2310
g517
ag0
(g732
g2
Ntp2311
Rp2312
(dp2313
g736
(lp2314
g462
ag508
asg782
F0.11538461538461542
sbasg782
F0.11538461538461542
sbasg782
F0.18518518518518523
sbasg782
F0.18518518518518523
sbasg782
F0.18518518518518523
sbasg782
F0.18518518518518523
sbasg782
F0.18518518518518523
sbasg782
F0.18518518518518523
sbag0
(g732
g2
Ntp2315
Rp2316
(dp2317
g736
(lp2318
g0
(g732
g2
Ntp2319
Rp2320
(dp2321
g736
(lp2322
g647
ag0
(g732
g2
Ntp2323
Rp2324
(dp2325
g736
(lp2326
g480
ag0
(g732
g2
Ntp2327
Rp2328
(dp2329
g736
(lp2330
g369
ag0
(g732
g2
Ntp2331
Rp2332
(dp2333
g736
(lp2334
g258
ag678
asg782
F0.18518518518518523
sbasg782
F0.18518518518518523
sbasg782
F0.18518518518518523
sbasg782
F0.18518518518518523
sbag0
(g732
g2
Ntp2335
Rp2336
(dp2337
g736
(lp2338
g658
ag0
(g732
g2
Ntp2339
Rp2340
(dp2341
g736
(lp2342
g436
ag0
(g732
g2
Ntp2343
Rp2344
(dp2345
g736
(lp2346
g325
ag0
(g732
g2
Ntp2347
Rp2348
(dp2349
g736
(lp2350
g203
ag0
(g732
g2
Ntp2351
Rp2352
(dp2353
g736
(lp2354
g247
ag0
(g732
g2
Ntp2355
Rp2356
(dp2357
g736
(lp2358
g214
ag242
asg782
F0.11538461538461542
sbasg782
F0.11538461538461542
sbasg782
F0.18518518518518523
sbasg782
F0.18518518518518523
sbasg782
F0.18518518518518523
sbasg782
F0.18518518518518523
sbasg782
F0.18518518518518523
sbasg782
F0.18518518518518523
sbag0
(g732
g2
Ntp2359
Rp2360
(dp2361
g736
(lp2362
g0
(g732
g2
Ntp2363
Rp2364
(dp2365
g736
(lp2366
g0
(g732
g2
Ntp2367
Rp2368
(dp2369
g736
(lp2370
g650
ag0
(g732
g2
Ntp2371
Rp2372
(dp2373
g736
(lp2374
g594
ag0
(g732
g2
Ntp2375
Rp2376
(dp2377
g736
(lp2378
g483
ag0
(g732
g2
Ntp2379
Rp2380
(dp2381
g736
(lp2382
g372
ag0
(g732
g2
Ntp2383
Rp2384
(dp2385
g736
(lp2386
g261
ag681
asg782
F0.18518518518518523
sbasg782
F0.18518518518518523
sbasg782
F0.18518518518518523
sbasg782
F0.18518518518518523
sbasg782
F0.18518518518518523
sbag0
(g732
g2
Ntp2387
Rp2388
(dp2389
g736
(lp2390
g0
(g732
g2
Ntp2391
Rp2392
(dp2393
g736
(lp2394
g610
ag0
(g732
g2
Ntp2395
Rp2396
(dp2397
g736
(lp2398
g499
ag0
(g732
g2
Ntp2399
Rp2400
(dp2401
g736
(lp2402
g388
ag697
asg782
F0.18518518518518523
sbasg782
F0.18518518518518523
sbasg782
F0.18518518518518523
sbag0
(g732
g2
Ntp2403
Rp2404
(dp2405
g736
(lp2406
g672
ag0
(g732
g2
Ntp2407
Rp2408
(dp2409
g736
(lp2410
g561
ag0
(g732
g2
Ntp2411
Rp2412
(dp2413
g736
(lp2414
g450
ag0
(g732
g2
Ntp2415
Rp2416
(dp2417
g736
(lp2418
g317
ag0
(g732
g2
Ntp2419
Rp2420
(dp2421
g736
(lp2422
g228
ag0
(g732
g2
Ntp2423
Rp2424
(dp2425
g736
(lp2426
g394
ag0
(g732
g2
Ntp2427
Rp2428
(dp2429
g736
(lp2430
g339
ag386
asg782
F0.11538461538461542
sbasg782
F0.11538461538461542
sbasg782
F0.18518518518518523
sbasg782
F0.18518518518518523
sbasg782
F0.18518518518518523
sbasg782
F0.18518518518518523
sbasg782
F0.18518518518518523
sbasg782
F0.18518518518518523
sbasg782
F0.18518518518518523
sbag0
(g732
g2
Ntp2431
Rp2432
(dp2433
g736
(lp2434
g0
(g732
g2
Ntp2435
Rp2436
(dp2437
g736
(lp2438
g0
(g732
g2
Ntp2439
Rp2440
(dp2441
g736
(lp2442
g635
ag0
(g732
g2
Ntp2443
Rp2444
(dp2445
g736
(lp2446
g624
ag0
(g732
g2
Ntp2447
Rp2448
(dp2449
g736
(lp2450
g613
ag0
(g732
g2
Ntp2451
Rp2452
(dp2453
g736
(lp2454
g602
ag0
(g732
g2
Ntp2455
Rp2456
(dp2457
g736
(lp2458
g591
ag0
(g732
g2
Ntp2459
Rp2460
(dp2461
g736
(lp2462
g569
ag0
(g732
g2
Ntp2463
Rp2464
(dp2465
g736
(lp2466
g558
ag0
(g732
g2
Ntp2467
Rp2468
(dp2469
g736
(lp2470
g547
ag0
(g732
g2
Ntp2471
Rp2472
(dp2473
g736
(lp2474
g536
ag0
(g732
g2
Ntp2475
Rp2476
(dp2477
g736
(lp2478
g530
ag0
(g732
g2
Ntp2479
Rp2480
(dp2481
g736
(lp2482
g575
ag580
asg782
F0.040000000000000036
sbasg782
F0.12
sbasg782
F0.15384615384615385
sbasg782
F0.15384615384615385
sbasg782
F0.15384615384615385
sbasg782
F0.15384615384615385
sbasg782
F0.15384615384615385
sbasg782
F0.15384615384615385
sbasg782
F0.15384615384615385
sbasg782
F0.15384615384615385
sbasg782
F0.15384615384615385
sbag0
(g732
g2
Ntp2483
Rp2484
(dp2485
g736
(lp2486
g491
ag0
(g732
g2
Ntp2487
Rp2488
(dp2489
g736
(lp2490
g380
ag0
(g732
g2
Ntp2491
Rp2492
(dp2493
g736
(lp2494
g269
ag689
asg782
F0.18518518518518523
sbasg782
F0.18518518518518523
sbasg782
F0.18518518518518523
sbasg782
F0.18518518518518523
sbag0
(g732
g2
Ntp2495
Rp2496
(dp2497
g736
(lp2498
g0
(g732
g2
Ntp2499
Rp2500
(dp2501
g736
(lp2502
g567
ag0
(g732
g2
Ntp2503
Rp2504
(dp2505
g736
(lp2506
g423
ag0
(g732
g2
Ntp2507
Rp2508
(dp2509
g736
(lp2510
g234
ag0
(g732
g2
Ntp2511
Rp2512
(dp2513
g736
(lp2514
g456
ag0
(g732
g2
Ntp2515
Rp2516
(dp2517
g736
(lp2518
g442
ag445
asg782
F0.11538461538461542
sbasg782
F0.11538461538461542
sbasg782
F0.18518518518518523
sbasg782
F0.18518518518518523
sbasg782
F0.18518518518518523
sbag0
(g732
g2
Ntp2519
Rp2520
(dp2521
g736
(lp2522
g589
ag0
(g732
g2
Ntp2523
Rp2524
(dp2525
g736
(lp2526
g467
ag0
(g732
g2
Ntp2527
Rp2528
(dp2529
g736
(lp2530
g245
ag0
(g732
g2
Ntp2531
Rp2532
(dp2533
g736
(lp2534
g578
ag0
(g732
g2
Ntp2535
Rp2536
(dp2537
g736
(lp2538
g553
ag556
asg782
F0.11538461538461542
sbasg782
F0.11538461538461542
sbasg782
F0.18518518518518523
sbasg782
F0.18518518518518523
sbasg782
F0.18518518518518523
sbasg782
F0.18518518518518523
sbasg782
F0.18518518518518523
sbasg782
F0.18518518518518523
sbasg782
F0.18518518518518523
sbag0
(g732
g2
Ntp2539
Rp2540
(dp2541
g736
(lp2542
g0
(g732
g2
Ntp2543
Rp2544
(dp2545
g736
(lp2546
g0
(g732
g2
Ntp2547
Rp2548
(dp2549
g736
(lp2550
g0
(g732
g2
Ntp2551
Rp2552
(dp2553
g736
(lp2554
g651
ag0
(g732
g2
Ntp2555
Rp2556
(dp2557
g736
(lp2558
g595
ag0
(g732
g2
Ntp2559
Rp2560
(dp2561
g736
(lp2562
g484
ag0
(g732
g2
Ntp2563
Rp2564
(dp2565
g736
(lp2566
g373
ag0
(g732
g2
Ntp2567
Rp2568
(dp2569
g736
(lp2570
g262
ag682
asg782
F0.18518518518518523
sbasg782
F0.18518518518518523
sbasg782
F0.18518518518518523
sbasg782
F0.18518518518518523
sbasg782
F0.18518518518518523
sbag0
(g732
g2
Ntp2571
Rp2572
(dp2573
g736
(lp2574
g0
(g732
g2
Ntp2575
Rp2576
(dp2577
g736
(lp2578
g606
ag0
(g732
g2
Ntp2579
Rp2580
(dp2581
g736
(lp2582
g495
ag0
(g732
g2
Ntp2583
Rp2584
(dp2585
g736
(lp2586
g384
ag0
(g732
g2
Ntp2587
Rp2588
(dp2589
g736
(lp2590
g273
ag693
asg782
F0.18518518518518523
sbasg782
F0.18518518518518523
sbasg782
F0.18518518518518523
sbasg782
F0.18518518518518523
sbag0
(g732
g2
Ntp2591
Rp2592
(dp2593
g736
(lp2594
g662
ag0
(g732
g2
Ntp2595
Rp2596
(dp2597
g736
(lp2598
g551
ag0
(g732
g2
Ntp2599
Rp2600
(dp2601
g736
(lp2602
g440
ag0
(g732
g2
Ntp2603
Rp2604
(dp2605
g736
(lp2606
g329
ag0
(g732
g2
Ntp2607
Rp2608
(dp2609
g736
(lp2610
g207
ag0
(g732
g2
Ntp2611
Rp2612
(dp2613
g736
(lp2614
g295
ag0
(g732
g2
Ntp2615
Rp2616
(dp2617
g736
(lp2618
g218
ag286
asg782
F0.11538461538461542
sbasg782
F0.11538461538461542
sbasg782
F0.18518518518518523
sbasg782
F0.18518518518518523
sbasg782
F0.18518518518518523
sbasg782
F0.18518518518518523
sbasg782
F0.18518518518518523
sbasg782
F0.18518518518518523
sbasg782
F0.18518518518518523
sbag0
(g732
g2
Ntp2619
Rp2620
(dp2621
g736
(lp2622
g0
(g732
g2
Ntp2623
Rp2624
(dp2625
g736
(lp2626
g0
(g732
g2
Ntp2627
Rp2628
(dp2629
g736
(lp2630
g599
ag0
(g732
g2
Ntp2631
Rp2632
(dp2633
g736
(lp2634
g488
ag0
(g732
g2
Ntp2635
Rp2636
(dp2637
g736
(lp2638
g377
ag686
asg782
F0.18518518518518523
sbasg782
F0.18518518518518523
sbasg782
F0.18518518518518523
sbag0
(g732
g2
Ntp2639
Rp2640
(dp2641
g736
(lp2642
g666
ag0
(g732
g2
Ntp2643
Rp2644
(dp2645
g736
(lp2646
g555
ag0
(g732
g2
Ntp2647
Rp2648
(dp2649
g736
(lp2650
g444
ag0
(g732
g2
Ntp2651
Rp2652
(dp2653
g736
(lp2654
g321
ag0
(g732
g2
Ntp2655
Rp2656
(dp2657
g736
(lp2658
g333
ag0
(g732
g2
Ntp2659
Rp2660
(dp2661
g736
(lp2662
g320
ag322
asg782
F0.11538461538461542
sbasg782
F0.11538461538461542
sbasg782
F0.18518518518518523
sbasg782
F0.18518518518518523
sbasg782
F0.18518518518518523
sbasg782
F0.18518518518518523
sbasg782
F0.18518518518518523
sbag0
(g732
g2
Ntp2663
Rp2664
(dp2665
g736
(lp2666
g0
(g732
g2
Ntp2667
Rp2668
(dp2669
g736
(lp2670
g601
ag0
(g732
g2
Ntp2671
Rp2672
(dp2673
g736
(lp2674
g379
ag0
(g732
g2
Ntp2675
Rp2676
(dp2677
g736
(lp2678
g268
ag688
asg782
F0.18518518518518523
sbasg782
F0.18518518518518523
sbasg782
F0.18518518518518523
sbag0
(g732
g2
Ntp2679
Rp2680
(dp2681
g736
(lp2682
g657
ag0
(g732
g2
Ntp2683
Rp2684
(dp2685
g736
(lp2686
g546
ag0
(g732
g2
Ntp2687
Rp2688
(dp2689
g736
(lp2690
g324
ag0
(g732
g2
Ntp2691
Rp2692
(dp2693
g736
(lp2694
g202
ag0
(g732
g2
Ntp2695
Rp2696
(dp2697
g736
(lp2698
g235
ag0
(g732
g2
Ntp2699
Rp2700
(dp2701
g736
(lp2702
g213
ag231
asg782
F0.11538461538461542
sbasg782
F0.11538461538461542
sbasg782
F0.18518518518518523
sbasg782
F0.18518518518518523
sbasg782
F0.18518518518518523
sbasg782
F0.18518518518518523
sbasg782
F0.18518518518518523
sbasg782
F0.18518518518518523
sbasg782
F0.18518518518518523
sbag0
(g732
g2
Ntp2703
Rp2704
(dp2705
g736
(lp2706
g0
(g732
g2
Ntp2707
Rp2708
(dp2709
g736
(lp2710
g0
(g732
g2
Ntp2711
Rp2712
(dp2713
g736
(lp2714
g652
ag0
(g732
g2
Ntp2715
Rp2716
(dp2717
g736
(lp2718
g596
ag0
(g732
g2
Ntp2719
Rp2720
(dp2721
g736
(lp2722
g485
ag0
(g732
g2
Ntp2723
Rp2724
(dp2725
g736
(lp2726
g374
ag0
(g732
g2
Ntp2727
Rp2728
(dp2729
g736
(lp2730
g263
ag683
asg782
F0.18518518518518523
sbasg782
F0.18518518518518523
sbasg782
F0.18518518518518523
sbasg782
F0.18518518518518523
sbasg782
F0.18518518518518523
sbag0
(g732
g2
Ntp2731
Rp2732
(dp2733
g736
(lp2734
g0
(g732
g2
Ntp2735
Rp2736
(dp2737
g736
(lp2738
g607
ag0
(g732
g2
Ntp2739
Rp2740
(dp2741
g736
(lp2742
g496
ag0
(g732
g2
Ntp2743
Rp2744
(dp2745
g736
(lp2746
g385
ag0
(g732
g2
Ntp2747
Rp2748
(dp2749
g736
(lp2750
g274
ag694
asg782
F0.18518518518518523
sbasg782
F0.18518518518518523
sbasg782
F0.18518518518518523
sbasg782
F0.18518518518518523
sbag0
(g732
g2
Ntp2751
Rp2752
(dp2753
g736
(lp2754
g663
ag0
(g732
g2
Ntp2755
Rp2756
(dp2757
g736
(lp2758
g552
ag0
(g732
g2
Ntp2759
Rp2760
(dp2761
g736
(lp2762
g441
ag0
(g732
g2
Ntp2763
Rp2764
(dp2765
g736
(lp2766
g330
ag0
(g732
g2
Ntp2767
Rp2768
(dp2769
g736
(lp2770
g208
ag0
(g732
g2
Ntp2771
Rp2772
(dp2773
g736
(lp2774
g307
ag0
(g732
g2
Ntp2775
Rp2776
(dp2777
g736
(lp2778
g219
ag297
asg782
F0.11538461538461542
sbasg782
F0.11538461538461542
sbasg782
F0.18518518518518523
sbasg782
F0.18518518518518523
sbasg782
F0.18518518518518523
sbasg782
F0.18518518518518523
sbasg782
F0.18518518518518523
sbasg782
F0.18518518518518523
sbasg782
F0.18518518518518523
sbag0
(g732
g2
Ntp2779
Rp2780
(dp2781
g736
(lp2782
g0
(g732
g2
Ntp2783
Rp2784
(dp2785
g736
(lp2786
g0
(g732
g2
Ntp2787
Rp2788
(dp2789
g736
(lp2790
g600
ag0
(g732
g2
Ntp2791
Rp2792
(dp2793
g736
(lp2794
g489
ag0
(g732
g2
Ntp2795
Rp2796
(dp2797
g736
(lp2798
g267
ag687
asg782
F0.18518518518518523
sbasg782
F0.18518518518518523
sbasg782
F0.18518518518518523
sbag0
(g732
g2
Ntp2799
Rp2800
(dp2801
g736
(lp2802
g656
ag0
(g732
g2
Ntp2803
Rp2804
(dp2805
g736
(lp2806
g545
ag0
(g732
g2
Ntp2807
Rp2808
(dp2809
g736
(lp2810
g434
ag0
(g732
g2
Ntp2811
Rp2812
(dp2813
g736
(lp2814
g221
ag0
(g732
g2
Ntp2815
Rp2816
(dp2817
g736
(lp2818
g223
ag0
(g732
g2
Ntp2819
Rp2820
(dp2821
g736
(lp2822
g212
ag220
asg782
F0.11538461538461542
sbasg782
F0.11538461538461542
sbasg782
F0.18518518518518523
sbasg782
F0.18518518518518523
sbasg782
F0.18518518518518523
sbasg782
F0.18518518518518523
sbasg782
F0.18518518518518523
sbag0
(g732
g2
Ntp2823
Rp2824
(dp2825
g736
(lp2826
g0
(g732
g2
Ntp2827
Rp2828
(dp2829
g736
(lp2830
g609
ag0
(g732
g2
Ntp2831
Rp2832
(dp2833
g736
(lp2834
g498
ag0
(g732
g2
Ntp2835
Rp2836
(dp2837
g736
(lp2838
g387
ag0
(g732
g2
Ntp2839
Rp2840
(dp2841
g736
(lp2842
g276
ag696
asg782
F0.18518518518518523
sbasg782
F0.18518518518518523
sbasg782
F0.18518518518518523
sbasg782
F0.18518518518518523
sbag0
(g732
g2
Ntp2843
Rp2844
(dp2845
g736
(lp2846
g654
ag0
(g732
g2
Ntp2847
Rp2848
(dp2849
g736
(lp2850
g543
ag0
(g732
g2
Ntp2851
Rp2852
(dp2853
g736
(lp2854
g432
ag0
(g732
g2
Ntp2855
Rp2856
(dp2857
g736
(lp2858
g201
ag0
(g732
g2
Ntp2859
Rp2860
(dp2861
g736
(lp2862
g210
ag0
(g732
g2
Ntp2863
Rp2864
(dp2865
g736
(lp2866
g198
ag199
asg782
F0.11538461538461542
sbasg782
F0.11538461538461542
sbasg782
F0.18518518518518523
sbasg782
F0.18518518518518523
sbasg782
F0.18518518518518523
sbasg782
F0.18518518518518523
sbasg782
F0.18518518518518523
sbasg782
F0.18518518518518523
sbasg782
F0.18518518518518523
sbasg782
F0.18518518518518523
sbasg782
F0.18518518518518523
sbasg782
F0.18518518518518523
sbasg782
F0.18518518518518523
sbasg782
F0.1923076923076923
sbag0
(g732
g2
Ntp2867
Rp2868
(dp2869
g736
(lp2870
g0
(g732
g2
Ntp2871
Rp2872
(dp2873
g736
(lp2874
g0
(g732
g2
Ntp2875
Rp2876
(dp2877
g736
(lp2878
g187
ag0
(g732
g2
Ntp2879
Rp2880
(dp2881
g736
(lp2882
g172
ag0
(g732
g2
Ntp2883
Rp2884
(dp2885
g736
(lp2886
g170
ag0
(g732
g2
Ntp2887
Rp2888
(dp2889
g736
(lp2890
g165
ag0
(g732
g2
Ntp2891
Rp2892
(dp2893
g736
(lp2894
g154
ag0
(g732
g2
Ntp2895
Rp2896
(dp2897
g736
(lp2898
g143
ag0
(g732
g2
Ntp2899
Rp2900
(dp2901
g736
(lp2902
g132
ag0
(g732
g2
Ntp2903
Rp2904
(dp2905
g736
(lp2906
g167
ag176
asg782
F0.15000000000000002
sbasg782
F0.23809523809523814
sbasg782
F0.23809523809523814
sbasg782
F0.23809523809523814
sbasg782
F0.23809523809523814
sbasg782
F0.23809523809523814
sbasg782
F0.23809523809523814
sbasg782
F0.23809523809523814
sbag0
(g732
g2
Ntp2907
Rp2908
(dp2909
g736
(lp2910
g0
(g732
g2
Ntp2911
Rp2912
(dp2913
g736
(lp2914
g179
ag0
(g732
g2
Ntp2915
Rp2916
(dp2917
g736
(lp2918
g168
ag0
(g732
g2
Ntp2919
Rp2920
(dp2921
g736
(lp2922
g157
ag0
(g732
g2
Ntp2923
Rp2924
(dp2925
g736
(lp2926
g146
ag0
(g732
g2
Ntp2927
Rp2928
(dp2929
g736
(lp2930
g43
ag135
asg782
F0.23809523809523814
sbasg782
F0.23809523809523814
sbasg782
F0.23809523809523814
sbasg782
F0.23809523809523814
sbasg782
F0.23809523809523814
sbag0
(g732
g2
Ntp2931
Rp2932
(dp2933
g736
(lp2934
g182
ag0
(g732
g2
Ntp2935
Rp2936
(dp2937
g736
(lp2938
g180
ag0
(g732
g2
Ntp2939
Rp2940
(dp2941
g736
(lp2942
g171
ag0
(g732
g2
Ntp2943
Rp2944
(dp2945
g736
(lp2946
g169
ag0
(g732
g2
Ntp2947
Rp2948
(dp2949
g736
(lp2950
g160
ag0
(g732
g2
Ntp2951
Rp2952
(dp2953
g736
(lp2954
g158
ag0
(g732
g2
Ntp2955
Rp2956
(dp2957
g736
(lp2958
g149
ag0
(g732
g2
Ntp2959
Rp2960
(dp2961
g736
(lp2962
g147
ag0
(g732
g2
Ntp2963
Rp2964
(dp2965
g736
(lp2966
g139
ag0
(g732
g2
Ntp2967
Rp2968
(dp2969
g736
(lp2970
g137
ag0
(g732
g2
Ntp2971
Rp2972
(dp2973
g736
(lp2974
g0
(g732
g2
Ntp2975
Rp2976
(dp2977
g736
(lp2978
g0
(g732
g2
Ntp2979
Rp2980
(dp2981
g736
(lp2982
g0
(g732
g2
Ntp2983
Rp2984
(dp2985
g736
(lp2986
g0
(g732
g2
Ntp2987
Rp2988
(dp2989
g736
(lp2990
g86
ag120
asg782
F0.2272727272727273
sbag0
(g732
g2
Ntp2991
Rp2992
(dp2993
g736
(lp2994
g0
(g732
g2
Ntp2995
Rp2996
(dp2997
g736
(lp2998
g53
ag0
(g732
g2
Ntp2999
Rp3000
(dp3001
g736
(lp3002
g64
ag98
asg782
F0.1428571428571429
sbasg782
F0.2272727272727273
sbag0
(g732
g2
Ntp3003
Rp3004
(dp3005
g736
(lp3006
g75
ag109
asg782
F0.2272727272727273
sbasg782
F0.2272727272727273
sbasg782
F0.2272727272727273
sbag0
(g732
g2
Ntp3007
Rp3008
(dp3009
g736
(lp3010
g0
(g732
g2
Ntp3011
Rp3012
(dp3013
g736
(lp3014
g92
ag126
asg782
F0.2272727272727273
sbag0
(g732
g2
Ntp3015
Rp3016
(dp3017
g736
(lp3018
g0
(g732
g2
Ntp3019
Rp3020
(dp3021
g736
(lp3022
g81
ag115
asg782
F0.2272727272727273
sbag0
(g732
g2
Ntp3023
Rp3024
(dp3025
g736
(lp3026
g0
(g732
g2
Ntp3027
Rp3028
(dp3029
g736
(lp3030
g68
ag102
asg782
F0.2272727272727273
sbag0
(g732
g2
Ntp3031
Rp3032
(dp3033
g736
(lp3034
g0
(g732
g2
Ntp3035
Rp3036
(dp3037
g736
(lp3038
g70
ag0
(g732
g2
Ntp3039
Rp3040
(dp3041
g736
(lp3042
g59
ag67
asg782
F0.1428571428571429
sbasg782
F0.1428571428571429
sbag0
(g732
g2
Ntp3043
Rp3044
(dp3045
g736
(lp3046
g101
ag104
asg782
F0.15000000000000002
sbasg782
F0.2272727272727273
sbasg782
F0.2272727272727273
sbasg782
F0.2272727272727273
sbasg782
F0.2272727272727273
sbasg782
F0.2272727272727273
sbag0
(g732
g2
Ntp3047
Rp3048
(dp3049
g736
(lp3050
g0
(g732
g2
Ntp3051
Rp3052
(dp3053
g736
(lp3054
g0
(g732
g2
Ntp3055
Rp3056
(dp3057
g736
(lp3058
g87
ag121
asg782
F0.2272727272727273
sbag0
(g732
g2
Ntp3059
Rp3060
(dp3061
g736
(lp3062
g0
(g732
g2
Ntp3063
Rp3064
(dp3065
g736
(lp3066
g54
ag0
(g732
g2
Ntp3067
Rp3068
(dp3069
g736
(lp3070
g65
ag99
asg782
F0.1428571428571429
sbasg782
F0.2272727272727273
sbag0
(g732
g2
Ntp3071
Rp3072
(dp3073
g736
(lp3074
g76
ag110
asg782
F0.2272727272727273
sbasg782
F0.2272727272727273
sbasg782
F0.2272727272727273
sbag0
(g732
g2
Ntp3075
Rp3076
(dp3077
g736
(lp3078
g0
(g732
g2
Ntp3079
Rp3080
(dp3081
g736
(lp3082
g93
ag127
asg782
F0.2272727272727273
sbag0
(g732
g2
Ntp3083
Rp3084
(dp3085
g736
(lp3086
g0
(g732
g2
Ntp3087
Rp3088
(dp3089
g736
(lp3090
g79
ag113
asg782
F0.2272727272727273
sbag0
(g732
g2
Ntp3091
Rp3092
(dp3093
g736
(lp3094
g0
(g732
g2
Ntp3095
Rp3096
(dp3097
g736
(lp3098
g71
ag105
asg782
F0.2272727272727273
sbag0
(g732
g2
Ntp3099
Rp3100
(dp3101
g736
(lp3102
g0
(g732
g2
Ntp3103
Rp3104
(dp3105
g736
(lp3106
g112
ag116
asg782
F0.15000000000000002
sbag0
(g732
g2
Ntp3107
Rp3108
(dp3109
g736
(lp3110
g49
ag0
(g732
g2
Ntp3111
Rp3112
(dp3113
g736
(lp3114
g82
ag0
(g732
g2
Ntp3115
Rp3116
(dp3117
g736
(lp3118
g60
ag78
asg782
F0.1428571428571429
sbasg782
F0.1428571428571429
sbasg782
F0.2272727272727273
sbasg782
F0.2272727272727273
sbasg782
F0.2272727272727273
sbasg782
F0.2272727272727273
sbasg782
F0.2272727272727273
sbasg782
F0.2272727272727273
sbasg782
F0.2272727272727273
sbag0
(g732
g2
Ntp3119
Rp3120
(dp3121
g736
(lp3122
g0
(g732
g2
Ntp3123
Rp3124
(dp3125
g736
(lp3126
g0
(g732
g2
Ntp3127
Rp3128
(dp3129
g736
(lp3130
g0
(g732
g2
Ntp3131
Rp3132
(dp3133
g736
(lp3134
g88
ag122
asg782
F0.2272727272727273
sbag0
(g732
g2
Ntp3135
Rp3136
(dp3137
g736
(lp3138
g0
(g732
g2
Ntp3139
Rp3140
(dp3141
g736
(lp3142
g55
ag0
(g732
g2
Ntp3143
Rp3144
(dp3145
g736
(lp3146
g66
ag100
asg782
F0.1428571428571429
sbasg782
F0.2272727272727273
sbag0
(g732
g2
Ntp3147
Rp3148
(dp3149
g736
(lp3150
g77
ag111
asg782
F0.2272727272727273
sbasg782
F0.2272727272727273
sbasg782
F0.2272727272727273
sbag0
(g732
g2
Ntp3151
Rp3152
(dp3153
g736
(lp3154
g0
(g732
g2
Ntp3155
Rp3156
(dp3157
g736
(lp3158
g95
ag129
asg782
F0.2272727272727273
sbag0
(g732
g2
Ntp3159
Rp3160
(dp3161
g736
(lp3162
g0
(g732
g2
Ntp3163
Rp3164
(dp3165
g736
(lp3166
g84
ag118
asg782
F0.2272727272727273
sbag0
(g732
g2
Ntp3167
Rp3168
(dp3169
g736
(lp3170
g0
(g732
g2
Ntp3171
Rp3172
(dp3173
g736
(lp3174
g73
ag107
asg782
F0.2272727272727273
sbag0
(g732
g2
Ntp3175
Rp3176
(dp3177
g736
(lp3178
g0
(g732
g2
Ntp3179
Rp3180
(dp3181
g736
(lp3182
g48
ag0
(g732
g2
Ntp3183
Rp3184
(dp3185
g736
(lp3186
g57
ag0
(g732
g2
Ntp3187
Rp3188
(dp3189
g736
(lp3190
g45
ag46
asg782
F0.1428571428571429
sbasg782
F0.1428571428571429
sbasg782
F0.2272727272727273
sbag0
(g732
g2
Ntp3191
Rp3192
(dp3193
g736
(lp3194
g51
ag0
(g732
g2
Ntp3195
Rp3196
(dp3197
g736
(lp3198
g62
ag96
asg782
F0.1428571428571429
sbasg782
F0.2272727272727273
sbasg782
F0.2272727272727273
sbasg782
F0.2272727272727273
sbasg782
F0.2272727272727273
sbasg782
F0.2272727272727273
sbasg782
F0.2272727272727273
sbag0
(g732
g2
Ntp3199
Rp3200
(dp3201
g736
(lp3202
g0
(g732
g2
Ntp3203
Rp3204
(dp3205
g736
(lp3206
g0
(g732
g2
Ntp3207
Rp3208
(dp3209
g736
(lp3210
g90
ag124
asg782
F0.2272727272727273
sbag0
(g732
g2
Ntp3211
Rp3212
(dp3213
g736
(lp3214
g0
(g732
g2
Ntp3215
Rp3216
(dp3217
g736
(lp3218
g83
ag117
asg782
F0.2272727272727273
sbag0
(g732
g2
Ntp3219
Rp3220
(dp3221
g736
(lp3222
g0
(g732
g2
Ntp3223
Rp3224
(dp3225
g736
(lp3226
g72
ag106
asg782
F0.2272727272727273
sbag0
(g732
g2
Ntp3227
Rp3228
(dp3229
g736
(lp3230
g0
(g732
g2
Ntp3231
Rp3232
(dp3233
g736
(lp3234
g123
ag128
asg782
F0.15000000000000002
sbag0
(g732
g2
Ntp3235
Rp3236
(dp3237
g736
(lp3238
g50
ag0
(g732
g2
Ntp3239
Rp3240
(dp3241
g736
(lp3242
g94
ag0
(g732
g2
Ntp3243
Rp3244
(dp3245
g736
(lp3246
g61
ag89
asg782
F0.1428571428571429
sbasg782
F0.1428571428571429
sbasg782
F0.2272727272727273
sbasg782
F0.2272727272727273
sbasg782
F0.2272727272727273
sbasg782
F0.2272727272727273
sbasg782
F0.2272727272727273
sbag0
(g732
g2
Ntp3247
Rp3248
(dp3249
g736
(lp3250
g0
(g732
g2
Ntp3251
Rp3252
(dp3253
g736
(lp3254
g125
ag0
(g732
g2
Ntp3255
Rp3256
(dp3257
g736
(lp3258
g114
ag0
(g732
g2
Ntp3259
Rp3260
(dp3261
g736
(lp3262
g103
ag0
(g732
g2
Ntp3263
Rp3264
(dp3265
g736
(lp3266
g91
ag0
(g732
g2
Ntp3267
Rp3268
(dp3269
g736
(lp3270
g80
ag0
(g732
g2
Ntp3271
Rp3272
(dp3273
g736
(lp3274
g69
ag0
(g732
g2
Ntp3275
Rp3276
(dp3277
g736
(lp3278
g47
ag0
(g732
g2
Ntp3279
Rp3280
(dp3281
g736
(lp3282
g44
ag0
(g732
g2
Ntp3283
Rp3284
(dp3285
g736
(lp3286
g56
ag58
asg782
F0.050000000000000044
sbasg782
F0.15000000000000002
sbasg782
F0.19047619047619047
sbasg782
F0.19047619047619047
sbasg782
F0.19047619047619047
sbasg782
F0.19047619047619047
sbasg782
F0.2272727272727273
sbasg782
F0.2272727272727273
sbasg782
F0.2272727272727273
sbag0
(g732
g2
Ntp3287
Rp3288
(dp3289
g736
(lp3290
g0
(g732
g2
Ntp3291
Rp3292
(dp3293
g736
(lp3294
g85
ag119
asg782
F0.2272727272727273
sbag0
(g732
g2
Ntp3295
Rp3296
(dp3297
g736
(lp3298
g0
(g732
g2
Ntp3299
Rp3300
(dp3301
g736
(lp3302
g52
ag0
(g732
g2
Ntp3303
Rp3304
(dp3305
g736
(lp3306
g63
ag97
asg782
F0.1428571428571429
sbasg782
F0.2272727272727273
sbag0
(g732
g2
Ntp3307
Rp3308
(dp3309
g736
(lp3310
g74
ag108
asg782
F0.2272727272727273
sbasg782
F0.2272727272727273
sbasg782
F0.2272727272727273
sbasg782
F0.2272727272727273
sbasg782
F0.2272727272727273
sbasg782
F0.2272727272727273
sbasg782
F0.2272727272727273
sbasg782
F0.23809523809523814
sbasg782
F0.23809523809523814
sbasg782
F0.23809523809523814
sbasg782
F0.23809523809523814
sbasg782
F0.23809523809523814
sbasg782
F0.23809523809523814
sbasg782
F0.23809523809523814
sbasg782
F0.23809523809523814
sbasg782
F0.23809523809523814
sbasg782
F0.23809523809523814
sbasg782
F0.23809523809523814
sbasg782
F0.23809523809523814
sbag0
(g732
g2
Ntp3311
Rp3312
(dp3313
g736
(lp3314
g0
(g732
g2
Ntp3315
Rp3316
(dp3317
g736
(lp3318
g0
(g732
g2
Ntp3319
Rp3320
(dp3321
g736
(lp3322
g183
ag0
(g732
g2
Ntp3323
Rp3324
(dp3325
g736
(lp3326
g181
ag0
(g732
g2
Ntp3327
Rp3328
(dp3329
g736
(lp3330
g177
ag0
(g732
g2
Ntp3331
Rp3332
(dp3333
g736
(lp3334
g166
ag0
(g732
g2
Ntp3335
Rp3336
(dp3337
g736
(lp3338
g155
ag0
(g732
g2
Ntp3339
Rp3340
(dp3341
g736
(lp3342
g144
ag0
(g732
g2
Ntp3343
Rp3344
(dp3345
g736
(lp3346
g133
ag0
(g732
g2
Ntp3347
Rp3348
(dp3349
g736
(lp3350
g178
ag188
asg782
F0.15000000000000002
sbasg782
F0.23809523809523814
sbasg782
F0.23809523809523814
sbasg782
F0.23809523809523814
sbasg782
F0.23809523809523814
sbasg782
F0.23809523809523814
sbasg782
F0.23809523809523814
sbasg782
F0.23809523809523814
sbag0
(g732
g2
Ntp3351
Rp3352
(dp3353
g736
(lp3354
g184
ag0
(g732
g2
Ntp3355
Rp3356
(dp3357
g736
(lp3358
g173
ag0
(g732
g2
Ntp3359
Rp3360
(dp3361
g736
(lp3362
g162
ag0
(g732
g2
Ntp3363
Rp3364
(dp3365
g736
(lp3366
g151
ag0
(g732
g2
Ntp3367
Rp3368
(dp3369
g736
(lp3370
g138
ag0
(g732
g2
Ntp3371
Rp3372
(dp3373
g736
(lp3374
g136
ag0
(g732
g2
Ntp3375
Rp3376
(dp3377
g736
(lp3378
g134
ag140
asg782
F0.15000000000000002
sbasg782
F0.23809523809523814
sbasg782
F0.23809523809523814
sbasg782
F0.23809523809523814
sbasg782
F0.23809523809523814
sbasg782
F0.23809523809523814
sbasg782
F0.23809523809523814
sbasg782
F0.23809523809523814
sbag0
(g732
g2
Ntp3379
Rp3380
(dp3381
g736
(lp3382
g0
(g732
g2
Ntp3383
Rp3384
(dp3385
g736
(lp3386
g185
ag0
(g732
g2
Ntp3387
Rp3388
(dp3389
g736
(lp3390
g174
ag0
(g732
g2
Ntp3391
Rp3392
(dp3393
g736
(lp3394
g163
ag0
(g732
g2
Ntp3395
Rp3396
(dp3397
g736
(lp3398
g150
ag0
(g732
g2
Ntp3399
Rp3400
(dp3401
g736
(lp3402
g148
ag0
(g732
g2
Ntp3403
Rp3404
(dp3405
g736
(lp3406
g141
ag0
(g732
g2
Ntp3407
Rp3408
(dp3409
g736
(lp3410
g130
ag0
(g732
g2
Ntp3411
Rp3412
(dp3413
g736
(lp3414
g145
ag152
asg782
F0.15000000000000002
sbasg782
F0.23809523809523814
sbasg782
F0.23809523809523814
sbasg782
F0.23809523809523814
sbasg782
F0.23809523809523814
sbasg782
F0.23809523809523814
sbasg782
F0.23809523809523814
sbasg782
F0.23809523809523814
sbag0
(g732
g2
Ntp3415
Rp3416
(dp3417
g736
(lp3418
g186
ag0
(g732
g2
Ntp3419
Rp3420
(dp3421
g736
(lp3422
g175
ag0
(g732
g2
Ntp3423
Rp3424
(dp3425
g736
(lp3426
g161
ag0
(g732
g2
Ntp3427
Rp3428
(dp3429
g736
(lp3430
g159
ag0
(g732
g2
Ntp3431
Rp3432
(dp3433
g736
(lp3434
g153
ag0
(g732
g2
Ntp3435
Rp3436
(dp3437
g736
(lp3438
g142
ag0
(g732
g2
Ntp3439
Rp3440
(dp3441
g736
(lp3442
g131
ag0
(g732
g2
Ntp3443
Rp3444
(dp3445
g736
(lp3446
g156
ag164
asg782
F0.15000000000000002
sbasg782
F0.23809523809523814
sbasg782
F0.23809523809523814
sbasg782
F0.23809523809523814
sbasg782
F0.23809523809523814
sbasg782
F0.23809523809523814
sbasg782
F0.23809523809523814
sbasg782
F0.23809523809523814
sbasg782
F0.23809523809523814
sbasg782
F0.23809523809523814
sbasg782
F0.23809523809523814
sbasg782
F0.33333333333333337
sbag0
(g732
g2
Ntp3447
Rp3448
(dp3449
g736
(lp3450
g0
(g732
g2
Ntp3451
Rp3452
(dp3453
g736
(lp3454
g0
(g732
g2
Ntp3455
Rp3456
(dp3457
g736
(lp3458
g195
ag0
(g732
g2
Ntp3459
Rp3460
(dp3461
g736
(lp3462
g189
ag190
asg782
F0.4285714285714286
sbasg782
F0.4285714285714286
sbag0
(g732
g2
Ntp3463
Rp3464
(dp3465
g736
(lp3466
g0
(g732
g2
Ntp3467
Rp3468
(dp3469
g736
(lp3470
g191
ag192
asg782
F0.4285714285714286
sbag0
(g732
g2
Ntp3471
Rp3472
(dp3473
g736
(lp3474
g193
ag194
asg782
F0.4285714285714286
sbasg782
F0.4285714285714286
sbasg782
F0.4285714285714286
sbag0
(g732
g2
Ntp3475
Rp3476
(dp3477
g736
(lp3478
g0
(g732
g2
Ntp3479
Rp3480
(dp3481
g736
(lp3482
g0
(g732
g2
Ntp3483
Rp3484
(dp3485
g736
(lp3486
g0
(g732
g2
Ntp3487
Rp3488
(dp3489
g736
(lp3490
g37
ag38
asg782
F0.3157894736842105
sbag0
(g732
g2
Ntp3491
Rp3492
(dp3493
g736
(lp3494
g39
ag40
asg782
F0.3157894736842105
sbasg782
F0.3157894736842105
sbag0
(g732
g2
Ntp3495
Rp3496
(dp3497
g736
(lp3498
g0
(g732
g2
Ntp3499
Rp3500
(dp3501
g736
(lp3502
g41
ag42
asg782
F0.3157894736842105
sbag0
(g732
g2
Ntp3503
Rp3504
(dp3505
g736
(lp3506
g0
(g732
g2
Ntp3507
Rp3508
(dp3509
g736
(lp3510
g33
ag34
asg782
F0.3157894736842105
sbag0
(g732
g2
Ntp3511
Rp3512
(dp3513
g736
(lp3514
g35
ag36
asg782
F0.3157894736842105
sbasg782
F0.3157894736842105
sbasg782
F0.3157894736842105
sbasg782
F0.3157894736842105
sbag0
(g732
g2
Ntp3515
Rp3516
(dp3517
g736
(lp3518
g0
(g732
g2
Ntp3519
Rp3520
(dp3521
g736
(lp3522
g0
(g732
g2
Ntp3523
Rp3524
(dp3525
g736
(lp3526
g0
(g732
g2
Ntp3527
Rp3528
(dp3529
g736
(lp3530
g0
(g732
g2
Ntp3531
Rp3532
(dp3533
g736
(lp3534
g24
ag26
asg782
F0.20833333333333337
sbag0
(g732
g2
Ntp3535
Rp3536
(dp3537
g736
(lp3538
g0
(g732
g2
Ntp3539
Rp3540
(dp3541
g736
(lp3542
g23
ag25
asg782
F0.20833333333333337
sbag0
(g732
g2
Ntp3543
Rp3544
(dp3545
g736
(lp3546
g0
(g732
g2
Ntp3547
Rp3548
(dp3549
g736
(lp3550
g20
ag22
asg782
F0.13043478260869568
sbag0
(g732
g2
Ntp3551
Rp3552
(dp3553
g736
(lp3554
g19
ag21
asg782
F0.20833333333333337
sbasg782
F0.20833333333333337
sbasg782
F0.20833333333333337
sbasg782
F0.20833333333333337
sbag0
(g732
g2
Ntp3555
Rp3556
(dp3557
g736
(lp3558
g27
ag28
asg782
F0.25
sbasg782
F0.25
sbag0
(g732
g2
Ntp3559
Rp3560
(dp3561
g736
(lp3562
g0
(g732
g2
Ntp3563
Rp3564
(dp3565
g736
(lp3566
g29
ag30
asg782
F0.25
sbag0
(g732
g2
Ntp3567
Rp3568
(dp3569
g736
(lp3570
g31
ag32
asg782
F0.25
sbasg782
F0.25
sbasg782
F0.25
sbag0
(g732
g2
Ntp3571
Rp3572
(dp3573
g736
(lp3574
g0
(g732
g2
Ntp3575
Rp3576
(dp3577
g736
(lp3578
g0
(g732
g2
Ntp3579
Rp3580
(dp3581
g736
(lp3582
g13
ag14
asg782
F0.25
sbag0
(g732
g2
Ntp3583
Rp3584
(dp3585
g736
(lp3586
g15
ag16
asg782
F0.25
sbasg782
F0.25
sbag0
(g732
g2
Ntp3587
Rp3588
(dp3589
g736
(lp3590
g0
(g732
g2
Ntp3591
Rp3592
(dp3593
g736
(lp3594
g17
ag18
asg782
F0.25
sbag0
(g732
g2
Ntp3595
Rp3596
(dp3597
g736
(lp3598
g0
(g732
g2
Ntp3599
Rp3600
(dp3601
g736
(lp3602
g9
ag10
asg782
F0.25
sbag0
(g732
g2
Ntp3603
Rp3604
(dp3605
g736
(lp3606
g11
ag12
asg782
F0.25
sbasg782
F0.25
sbasg782
F0.25
sbasg782
F0.25
sbasg782
F0.5517241379310345
sbasg782
F0.6296296296296297
sbasg782
F0.92
sbasg782
F0.9210526315789473
sbasS'linkage'
p3607
Nsb.