ccopy_reg
_reconstructor
p0
(ccluster.method.hierarchical
HierarchicalClustering
p1
c__builtin__
object
p2
Ntp3
Rp4
(dp5
S'distance'
p6
NsS'_input'
p7
(lp8
S'associateprofessor8'
p9
aS'fullprofessor5'
p10
aS'fullprofessor9'
p11
aS'graduatestudent102'
p12
aS'graduatestudent123'
p13
aS'graduatestudent126'
p14
aS'graduatestudent129'
p15
aS'graduatestudent131'
p16
aS'graduatestudent133'
p17
aS'graduatestudent134'
p18
aS'graduatestudent142'
p19
aS'graduatestudent49'
p20
aS'graduatestudent50'
p21
aS'graduatestudent58'
p22
aS'graduatestudent63'
p23
aS'graduatestudent65'
p24
aS'lecturer2'
p25
aS'undergraduatestudent100'
p26
aS'undergraduatestudent113'
p27
aS'undergraduatestudent149'
p28
aS'undergraduatestudent159'
p29
aS'undergraduatestudent185'
p30
aS'undergraduatestudent186'
p31
aS'undergraduatestudent189'
p32
aS'undergraduatestudent21'
p33
aS'undergraduatestudent22'
p34
aS'undergraduatestudent247'
p35
aS'undergraduatestudent276'
p36
aS'undergraduatestudent280'
p37
aS'undergraduatestudent291'
p38
aS'undergraduatestudent294'
p39
aS'undergraduatestudent323'
p40
aS'undergraduatestudent346'
p41
aS'undergraduatestudent364'
p42
aS'undergraduatestudent372'
p43
aS'undergraduatestudent374'
p44
aS'undergraduatestudent390'
p45
aS'undergraduatestudent417'
p46
aS'undergraduatestudent420'
p47
aS'undergraduatestudent446'
p48
aS'undergraduatestudent451'
p49
aS'undergraduatestudent461'
p50
aS'undergraduatestudent468'
p51
aS'undergraduatestudent481'
p52
aS'undergraduatestudent50'
p53
aS'undergraduatestudent505'
p54
aS'undergraduatestudent518'
p55
aS'undergraduatestudent65'
p56
aS'undergraduatestudent73'
p57
aS'undergraduatestudent92'
p58
asS'num_processes'
p59
I1
sS'_HierarchicalClustering__cluster_created'
p60
I01
sS'_data'
p61
(lp62
g0
(ccluster.cluster
Cluster
p63
g2
Ntp64
Rp65
(dp66
S'_Cluster__items'
p67
(lp68
g25
ag0
(g63
g2
Ntp69
Rp70
(dp71
g67
(lp72
g0
(g63
g2
Ntp73
Rp74
(dp75
g67
(lp76
g0
(g63
g2
Ntp77
Rp78
(dp79
g67
(lp80
g0
(g63
g2
Ntp81
Rp82
(dp83
g67
(lp84
g12
ag19
asS'_Cluster__level'
p85
F0.26086956521739135
sbag0
(g63
g2
Ntp86
Rp87
(dp88
g67
(lp89
g0
(g63
g2
Ntp90
Rp91
(dp92
g67
(lp93
g23
ag24
asg85
F0.2727272727272727
sbag0
(g63
g2
Ntp94
Rp95
(dp96
g67
(lp97
g20
ag0
(g63
g2
Ntp98
Rp99
(dp100
g67
(lp101
g0
(g63
g2
Ntp102
Rp103
(dp104
g67
(lp105
g15
ag0
(g63
g2
Ntp106
Rp107
(dp108
g67
(lp109
g13
ag14
asg85
F0.26086956521739135
sbasg85
F0.26086956521739135
sbag0
(g63
g2
Ntp110
Rp111
(dp112
g67
(lp113
g18
ag0
(g63
g2
Ntp114
Rp115
(dp116
g67
(lp117
g16
ag17
asg85
F0.26086956521739135
sbasg85
F0.26086956521739135
sbasg85
F0.26086956521739135
sbasg85
F0.30434782608695654
sbasg85
F0.30434782608695654
sbasg85
F0.33333333333333337
sbag0
(g63
g2
Ntp118
Rp119
(dp120
g67
(lp121
g0
(g63
g2
Ntp122
Rp123
(dp124
g67
(lp125
g21
ag22
asg85
F0.2727272727272727
sbag0
(g63
g2
Ntp126
Rp127
(dp128
g67
(lp129
g0
(g63
g2
Ntp130
Rp131
(dp132
g67
(lp133
g46
ag0
(g63
g2
Ntp134
Rp135
(dp136
g67
(lp137
g41
ag48
asg85
F0.2142857142857143
sbasg85
F0.27586206896551724
sbag0
(g63
g2
Ntp138
Rp139
(dp140
g67
(lp141
g0
(g63
g2
Ntp142
Rp143
(dp144
g67
(lp145
g40
ag0
(g63
g2
Ntp146
Rp147
(dp148
g67
(lp149
g27
ag57
asg85
F0.25
sbasg85
F0.25
sbag0
(g63
g2
Ntp150
Rp151
(dp152
g67
(lp153
g0
(g63
g2
Ntp154
Rp155
(dp156
g67
(lp157
g0
(g63
g2
Ntp158
Rp159
(dp160
g67
(lp161
g52
ag0
(g63
g2
Ntp162
Rp163
(dp164
g67
(lp165
g51
ag0
(g63
g2
Ntp166
Rp167
(dp168
g67
(lp169
g49
ag50
asg85
F0.2142857142857143
sbasg85
F0.2142857142857143
sbasg85
F0.2142857142857143
sbag0
(g63
g2
Ntp170
Rp171
(dp172
g67
(lp173
g0
(g63
g2
Ntp174
Rp175
(dp176
g67
(lp177
g43
ag0
(g63
g2
Ntp178
Rp179
(dp180
g67
(lp181
g42
ag44
asg85
F0.2142857142857143
sbasg85
F0.2142857142857143
sbag0
(g63
g2
Ntp182
Rp183
(dp184
g67
(lp185
g36
ag0
(g63
g2
Ntp186
Rp187
(dp188
g67
(lp189
g35
ag0
(g63
g2
Ntp190
Rp191
(dp192
g67
(lp193
g0
(g63
g2
Ntp194
Rp195
(dp196
g67
(lp197
g39
ag0
(g63
g2
Ntp198
Rp199
(dp200
g67
(lp201
g33
ag38
asg85
F0.18518518518518523
sbasg85
F0.2142857142857143
sbag0
(g63
g2
Ntp202
Rp203
(dp204
g67
(lp205
g34
ag58
asg85
F0.2222222222222222
sbasg85
F0.2222222222222222
sbasg85
F0.25
sbasg85
F0.25
sbasg85
F0.25
sbasg85
F0.25
sbag0
(g63
g2
Ntp206
Rp207
(dp208
g67
(lp209
g0
(g63
g2
Ntp210
Rp211
(dp212
g67
(lp213
g55
ag0
(g63
g2
Ntp214
Rp215
(dp216
g67
(lp217
g47
ag0
(g63
g2
Ntp218
Rp219
(dp220
g67
(lp221
g45
ag0
(g63
g2
Ntp222
Rp223
(dp224
g67
(lp225
g37
ag0
(g63
g2
Ntp226
Rp227
(dp228
g67
(lp229
g26
ag0
(g63
g2
Ntp230
Rp231
(dp232
g67
(lp233
g53
ag54
asg85
F0.18518518518518523
sbasg85
F0.25
sbasg85
F0.25
sbasg85
F0.25
sbasg85
F0.25
sbasg85
F0.25
sbag0
(g63
g2
Ntp234
Rp235
(dp236
g67
(lp237
g56
ag0
(g63
g2
Ntp238
Rp239
(dp240
g67
(lp241
g0
(g63
g2
Ntp242
Rp243
(dp244
g67
(lp245
g30
ag31
asg85
F0.2142857142857143
sbag0
(g63
g2
Ntp246
Rp247
(dp248
g67
(lp249
g32
ag0
(g63
g2
Ntp250
Rp251
(dp252
g67
(lp253
g28
ag29
asg85
F0.2142857142857143
sbasg85
F0.2142857142857143
sbasg85
F0.2142857142857143
sbasg85
F0.25
sbasg85
F0.25
sbasg85
F0.25
sbasg85
F0.27586206896551724
sbasg85
F0.27586206896551724
sbasg85
F0.34615384615384615
sbasg85
F0.34615384615384615
sbag0
(g63
g2
Ntp254
Rp255
(dp256
g67
(lp257
g9
ag0
(g63
g2
Ntp258
Rp259
(dp260
g67
(lp261
g10
ag11
asg85
F0.3157894736842105
sbasg85
F0.7666666666666666
sbasg85
F0.9473684210526316
sbasg85
F0.9666666666666667
sbasS'linkage'
p262
Nsb.