ccopy_reg
_reconstructor
p0
(ccluster.method.hierarchical
HierarchicalClustering
p1
c__builtin__
object
p2
Ntp3
Rp4
(dp5
S'distance'
p6
NsS'_input'
p7
(lp8
S'assistantprofessor1'
p9
aS'assistantprofessor2'
p10
aS'assistantprofessor3'
p11
aS'assistantprofessor4'
p12
aS'assistantprofessor6'
p13
aS'assistantprofessor8'
p14
aS'associateprofessor1'
p15
aS'associateprofessor10'
p16
aS'associateprofessor11'
p17
aS'associateprofessor3'
p18
aS'associateprofessor5'
p19
aS'fullprofessor2'
p20
aS'fullprofessor5'
p21
aS'fullprofessor9'
p22
aS'graduatestudent102'
p23
aS'graduatestudent107'
p24
aS'graduatestudent110'
p25
aS'graduatestudent111'
p26
aS'graduatestudent111'
p27
aS'graduatestudent111'
p28
aS'graduatestudent114'
p29
aS'graduatestudent115'
p30
aS'graduatestudent116'
p31
aS'graduatestudent118'
p32
aS'graduatestudent12'
p33
aS'graduatestudent120'
p34
aS'graduatestudent121'
p35
aS'graduatestudent126'
p36
aS'graduatestudent128'
p37
aS'graduatestudent130'
p38
aS'graduatestudent130'
p39
aS'graduatestudent131'
p40
aS'graduatestudent132'
p41
aS'graduatestudent133'
p42
aS'graduatestudent136'
p43
aS'graduatestudent142'
p44
aS'graduatestudent17'
p45
aS'graduatestudent20'
p46
aS'graduatestudent24'
p47
aS'graduatestudent26'
p48
aS'graduatestudent3'
p49
aS'graduatestudent31'
p50
aS'graduatestudent36'
p51
aS'graduatestudent4'
p52
aS'graduatestudent4'
p53
aS'graduatestudent49'
p54
aS'graduatestudent53'
p55
aS'graduatestudent59'
p56
aS'graduatestudent6'
p57
aS'graduatestudent60'
p58
aS'graduatestudent64'
p59
aS'graduatestudent68'
p60
aS'graduatestudent70'
p61
aS'graduatestudent70'
p62
aS'graduatestudent72'
p63
aS'graduatestudent84'
p64
aS'graduatestudent85'
p65
aS'graduatestudent87'
p66
aS'graduatestudent88'
p67
aS'graduatestudent94'
p68
aS'graduatestudent99'
p69
aS'lecturer5'
p70
aS'undergraduatestudent106'
p71
aS'undergraduatestudent107'
p72
aS'undergraduatestudent11'
p73
aS'undergraduatestudent110'
p74
aS'undergraduatestudent110'
p75
aS'undergraduatestudent113'
p76
aS'undergraduatestudent113'
p77
aS'undergraduatestudent116'
p78
aS'undergraduatestudent119'
p79
aS'undergraduatestudent126'
p80
aS'undergraduatestudent128'
p81
aS'undergraduatestudent132'
p82
aS'undergraduatestudent138'
p83
aS'undergraduatestudent139'
p84
aS'undergraduatestudent140'
p85
aS'undergraduatestudent145'
p86
aS'undergraduatestudent148'
p87
aS'undergraduatestudent15'
p88
aS'undergraduatestudent154'
p89
aS'undergraduatestudent161'
p90
aS'undergraduatestudent165'
p91
aS'undergraduatestudent167'
p92
aS'undergraduatestudent170'
p93
aS'undergraduatestudent171'
p94
aS'undergraduatestudent175'
p95
aS'undergraduatestudent176'
p96
aS'undergraduatestudent177'
p97
aS'undergraduatestudent181'
p98
aS'undergraduatestudent19'
p99
aS'undergraduatestudent192'
p100
aS'undergraduatestudent194'
p101
aS'undergraduatestudent198'
p102
aS'undergraduatestudent199'
p103
aS'undergraduatestudent20'
p104
aS'undergraduatestudent200'
p105
aS'undergraduatestudent201'
p106
aS'undergraduatestudent202'
p107
aS'undergraduatestudent203'
p108
aS'undergraduatestudent204'
p109
aS'undergraduatestudent206'
p110
aS'undergraduatestudent212'
p111
aS'undergraduatestudent224'
p112
aS'undergraduatestudent228'
p113
aS'undergraduatestudent229'
p114
aS'undergraduatestudent233'
p115
aS'undergraduatestudent234'
p116
aS'undergraduatestudent239'
p117
aS'undergraduatestudent241'
p118
aS'undergraduatestudent249'
p119
aS'undergraduatestudent25'
p120
aS'undergraduatestudent252'
p121
aS'undergraduatestudent254'
p122
aS'undergraduatestudent258'
p123
aS'undergraduatestudent26'
p124
aS'undergraduatestudent261'
p125
aS'undergraduatestudent262'
p126
aS'undergraduatestudent265'
p127
aS'undergraduatestudent277'
p128
aS'undergraduatestudent280'
p129
aS'undergraduatestudent280'
p130
aS'undergraduatestudent283'
p131
aS'undergraduatestudent287'
p132
aS'undergraduatestudent289'
p133
aS'undergraduatestudent29'
p134
aS'undergraduatestudent292'
p135
aS'undergraduatestudent298'
p136
aS'undergraduatestudent299'
p137
aS'undergraduatestudent304'
p138
aS'undergraduatestudent307'
p139
aS'undergraduatestudent31'
p140
aS'undergraduatestudent310'
p141
aS'undergraduatestudent314'
p142
aS'undergraduatestudent32'
p143
aS'undergraduatestudent332'
p144
aS'undergraduatestudent340'
p145
aS'undergraduatestudent341'
p146
aS'undergraduatestudent343'
p147
aS'undergraduatestudent356'
p148
aS'undergraduatestudent363'
p149
aS'undergraduatestudent366'
p150
aS'undergraduatestudent368'
p151
aS'undergraduatestudent372'
p152
aS'undergraduatestudent373'
p153
aS'undergraduatestudent374'
p154
aS'undergraduatestudent378'
p155
aS'undergraduatestudent378'
p156
aS'undergraduatestudent38'
p157
aS'undergraduatestudent384'
p158
aS'undergraduatestudent39'
p159
aS'undergraduatestudent392'
p160
aS'undergraduatestudent398'
p161
aS'undergraduatestudent401'
p162
aS'undergraduatestudent403'
p163
aS'undergraduatestudent403'
p164
aS'undergraduatestudent404'
p165
aS'undergraduatestudent406'
p166
aS'undergraduatestudent410'
p167
aS'undergraduatestudent426'
p168
aS'undergraduatestudent429'
p169
aS'undergraduatestudent432'
p170
aS'undergraduatestudent434'
p171
aS'undergraduatestudent438'
p172
aS'undergraduatestudent44'
p173
aS'undergraduatestudent442'
p174
aS'undergraduatestudent443'
p175
aS'undergraduatestudent444'
p176
aS'undergraduatestudent445'
p177
aS'undergraduatestudent46'
p178
aS'undergraduatestudent460'
p179
aS'undergraduatestudent463'
p180
aS'undergraduatestudent465'
p181
aS'undergraduatestudent470'
p182
aS'undergraduatestudent476'
p183
aS'undergraduatestudent477'
p184
aS'undergraduatestudent479'
p185
aS'undergraduatestudent481'
p186
aS'undergraduatestudent482'
p187
aS'undergraduatestudent483'
p188
aS'undergraduatestudent484'
p189
aS'undergraduatestudent486'
p190
aS'undergraduatestudent489'
p191
aS'undergraduatestudent498'
p192
aS'undergraduatestudent50'
p193
aS'undergraduatestudent501'
p194
aS'undergraduatestudent505'
p195
aS'undergraduatestudent507'
p196
aS'undergraduatestudent512'
p197
aS'undergraduatestudent513'
p198
aS'undergraduatestudent513'
p199
aS'undergraduatestudent518'
p200
aS'undergraduatestudent520'
p201
aS'undergraduatestudent525'
p202
aS'undergraduatestudent6'
p203
aS'undergraduatestudent61'
p204
aS'undergraduatestudent72'
p205
aS'undergraduatestudent78'
p206
aS'undergraduatestudent83'
p207
aS'undergraduatestudent98'
p208
asS'num_processes'
p209
I1
sS'_HierarchicalClustering__cluster_created'
p210
I01
sS'_data'
p211
(lp212
g0
(ccluster.cluster
Cluster
p213
g2
Ntp214
Rp215
(dp216
S'_Cluster__items'
p217
(lp218
g0
(g213
g2
Ntp219
Rp220
(dp221
g217
(lp222
g0
(g213
g2
Ntp223
Rp224
(dp225
g217
(lp226
g0
(g213
g2
Ntp227
Rp228
(dp229
g217
(lp230
g0
(g213
g2
Ntp231
Rp232
(dp233
g217
(lp234
g0
(g213
g2
Ntp235
Rp236
(dp237
g217
(lp238
g0
(g213
g2
Ntp239
Rp240
(dp241
g217
(lp242
g112
ag113
asS'_Cluster__level'
p243
F0.2142857142857143
sbag0
(g213
g2
Ntp244
Rp245
(dp246
g217
(lp247
g115
ag116
asg243
F0.2142857142857143
sbasg243
F0.2142857142857143
sbag0
(g213
g2
Ntp248
Rp249
(dp250
g217
(lp251
g0
(g213
g2
Ntp252
Rp253
(dp254
g217
(lp255
g167
ag182
asg243
F0.2142857142857143
sbag0
(g213
g2
Ntp256
Rp257
(dp258
g217
(lp259
g0
(g213
g2
Ntp260
Rp261
(dp262
g217
(lp263
g81
ag87
asg243
F0.2142857142857143
sbag0
(g213
g2
Ntp264
Rp265
(dp266
g217
(lp267
g85
ag93
asg243
F0.2142857142857143
sbasg243
F0.2142857142857143
sbasg243
F0.2142857142857143
sbasg243
F0.2142857142857143
sbag0
(g213
g2
Ntp268
Rp269
(dp270
g217
(lp271
g0
(g213
g2
Ntp272
Rp273
(dp274
g217
(lp275
g0
(g213
g2
Ntp276
Rp277
(dp278
g217
(lp279
g128
ag132
asg243
F0.2142857142857143
sbag0
(g213
g2
Ntp280
Rp281
(dp282
g217
(lp283
g184
ag185
asg243
F0.2142857142857143
sbasg243
F0.2142857142857143
sbag0
(g213
g2
Ntp284
Rp285
(dp286
g217
(lp287
g0
(g213
g2
Ntp288
Rp289
(dp290
g217
(lp291
g162
ag186
asg243
F0.2142857142857143
sbag0
(g213
g2
Ntp292
Rp293
(dp294
g217
(lp295
g187
ag191
asg243
F0.2142857142857143
sbasg243
F0.2142857142857143
sbasg243
F0.2142857142857143
sbasg243
F0.2142857142857143
sbag0
(g213
g2
Ntp296
Rp297
(dp298
g217
(lp299
g0
(g213
g2
Ntp300
Rp301
(dp302
g217
(lp303
g0
(g213
g2
Ntp304
Rp305
(dp306
g217
(lp307
g0
(g213
g2
Ntp308
Rp309
(dp310
g217
(lp311
g145
ag147
asg243
F0.2142857142857143
sbag0
(g213
g2
Ntp312
Rp313
(dp314
g217
(lp315
g149
ag153
asg243
F0.2142857142857143
sbasg243
F0.2142857142857143
sbag0
(g213
g2
Ntp316
Rp317
(dp318
g217
(lp319
g0
(g213
g2
Ntp320
Rp321
(dp322
g217
(lp323
g200
ag0
(g213
g2
Ntp324
Rp325
(dp326
g217
(lp327
g198
ag199
asg243
F0.0
sbasg243
F0.2142857142857143
sbag0
(g213
g2
Ntp328
Rp329
(dp330
g217
(lp331
g0
(g213
g2
Ntp332
Rp333
(dp334
g217
(lp335
g148
ag150
asg243
F0.2142857142857143
sbag0
(g213
g2
Ntp336
Rp337
(dp338
g217
(lp339
g0
(g213
g2
Ntp340
Rp341
(dp342
g217
(lp343
g111
ag197
asg243
F0.2142857142857143
sbag0
(g213
g2
Ntp344
Rp345
(dp346
g217
(lp347
g154
ag0
(g213
g2
Ntp348
Rp349
(dp350
g217
(lp351
g203
ag0
(g213
g2
Ntp352
Rp353
(dp354
g217
(lp355
g0
(g213
g2
Ntp356
Rp357
(dp358
g217
(lp359
g0
(g213
g2
Ntp360
Rp361
(dp362
g217
(lp363
g0
(g213
g2
Ntp364
Rp365
(dp366
g217
(lp367
g172
ag0
(g213
g2
Ntp368
Rp369
(dp370
g217
(lp371
g158
ag0
(g213
g2
Ntp372
Rp373
(dp374
g217
(lp375
g151
ag0
(g213
g2
Ntp376
Rp377
(dp378
g217
(lp379
g83
ag157
asg243
F0.18518518518518523
sbasg243
F0.18518518518518523
sbasg243
F0.18518518518518523
sbasg243
F0.18518518518518523
sbag0
(g213
g2
Ntp380
Rp381
(dp382
g217
(lp383
g206
ag0
(g213
g2
Ntp384
Rp385
(dp386
g217
(lp387
g155
ag156
asg243
F0.0
sbasg243
F0.18518518518518523
sbasg243
F0.18518518518518523
sbag0
(g213
g2
Ntp388
Rp389
(dp390
g217
(lp391
g0
(g213
g2
Ntp392
Rp393
(dp394
g217
(lp395
g0
(g213
g2
Ntp396
Rp397
(dp398
g217
(lp399
g169
ag0
(g213
g2
Ntp400
Rp401
(dp402
g217
(lp403
g135
ag0
(g213
g2
Ntp404
Rp405
(dp406
g217
(lp407
g133
ag0
(g213
g2
Ntp408
Rp409
(dp410
g217
(lp411
g119
ag0
(g213
g2
Ntp412
Rp413
(dp414
g217
(lp415
g117
ag0
(g213
g2
Ntp416
Rp417
(dp418
g217
(lp419
g137
ag0
(g213
g2
Ntp420
Rp421
(dp422
g217
(lp423
g114
ag134
asg243
F0.11538461538461542
sbasg243
F0.11538461538461542
sbasg243
F0.18518518518518523
sbasg243
F0.18518518518518523
sbasg243
F0.18518518518518523
sbasg243
F0.18518518518518523
sbasg243
F0.18518518518518523
sbag0
(g213
g2
Ntp424
Rp425
(dp426
g217
(lp427
g192
ag0
(g213
g2
Ntp428
Rp429
(dp430
g217
(lp431
g136
ag0
(g213
g2
Ntp432
Rp433
(dp434
g217
(lp435
g102
ag208
asg243
F0.18518518518518523
sbasg243
F0.18518518518518523
sbasg243
F0.18518518518518523
sbasg243
F0.18518518518518523
sbag0
(g213
g2
Ntp436
Rp437
(dp438
g217
(lp439
g0
(g213
g2
Ntp440
Rp441
(dp442
g217
(lp443
g0
(g213
g2
Ntp444
Rp445
(dp446
g217
(lp447
g152
ag205
asg243
F0.18518518518518523
sbag0
(g213
g2
Ntp448
Rp449
(dp450
g217
(lp451
g170
ag0
(g213
g2
Ntp452
Rp453
(dp454
g217
(lp455
g160
ag0
(g213
g2
Ntp456
Rp457
(dp458
g217
(lp459
g82
ag0
(g213
g2
Ntp460
Rp461
(dp462
g217
(lp463
g143
ag144
asg243
F0.11538461538461542
sbasg243
F0.18518518518518523
sbasg243
F0.18518518518518523
sbasg243
F0.18518518518518523
sbasg243
F0.18518518518518523
sbag0
(g213
g2
Ntp464
Rp465
(dp466
g217
(lp467
g0
(g213
g2
Ntp468
Rp469
(dp470
g217
(lp471
g0
(g213
g2
Ntp472
Rp473
(dp474
g217
(lp475
g76
ag77
asg243
F0.0
sbag0
(g213
g2
Ntp476
Rp477
(dp478
g217
(lp479
g0
(g213
g2
Ntp480
Rp481
(dp482
g217
(lp483
g74
ag75
asg243
F0.0
sbag0
(g213
g2
Ntp484
Rp485
(dp486
g217
(lp487
g98
ag0
(g213
g2
Ntp488
Rp489
(dp490
g217
(lp491
g94
ag0
(g213
g2
Ntp492
Rp493
(dp494
g217
(lp495
g73
ag78
asg243
F0.18518518518518523
sbasg243
F0.18518518518518523
sbasg243
F0.18518518518518523
sbasg243
F0.18518518518518523
sbasg243
F0.18518518518518523
sbag0
(g213
g2
Ntp496
Rp497
(dp498
g217
(lp499
g0
(g213
g2
Ntp500
Rp501
(dp502
g217
(lp503
g101
ag0
(g213
g2
Ntp504
Rp505
(dp506
g217
(lp507
g100
ag0
(g213
g2
Ntp508
Rp509
(dp510
g217
(lp511
g103
ag0
(g213
g2
Ntp512
Rp513
(dp514
g217
(lp515
g79
ag99
asg243
F0.11538461538461542
sbasg243
F0.11538461538461542
sbasg243
F0.18518518518518523
sbasg243
F0.18518518518518523
sbag0
(g213
g2
Ntp516
Rp517
(dp518
g217
(lp519
g161
ag0
(g213
g2
Ntp520
Rp521
(dp522
g217
(lp523
g84
ag159
asg243
F0.18518518518518523
sbasg243
F0.18518518518518523
sbasg243
F0.18518518518518523
sbasg243
F0.18518518518518523
sbasg243
F0.18518518518518523
sbasg243
F0.18518518518518523
sbasg243
F0.18518518518518523
sbag0
(g213
g2
Ntp524
Rp525
(dp526
g217
(lp527
g0
(g213
g2
Ntp528
Rp529
(dp530
g217
(lp531
g0
(g213
g2
Ntp532
Rp533
(dp534
g217
(lp535
g196
ag0
(g213
g2
Ntp536
Rp537
(dp538
g217
(lp539
g195
ag0
(g213
g2
Ntp540
Rp541
(dp542
g217
(lp543
g193
ag194
asg243
F0.18518518518518523
sbasg243
F0.18518518518518523
sbasg243
F0.18518518518518523
sbag0
(g213
g2
Ntp544
Rp545
(dp546
g217
(lp547
g0
(g213
g2
Ntp548
Rp549
(dp550
g217
(lp551
g129
ag130
asg243
F0.0
sbag0
(g213
g2
Ntp552
Rp553
(dp554
g217
(lp555
g201
ag0
(g213
g2
Ntp556
Rp557
(dp558
g217
(lp559
g109
ag0
(g213
g2
Ntp560
Rp561
(dp562
g217
(lp563
g108
ag0
(g213
g2
Ntp564
Rp565
(dp566
g217
(lp567
g107
ag0
(g213
g2
Ntp568
Rp569
(dp570
g217
(lp571
g106
ag0
(g213
g2
Ntp572
Rp573
(dp574
g217
(lp575
g104
ag105
asg243
F0.11538461538461542
sbasg243
F0.18518518518518523
sbasg243
F0.18518518518518523
sbasg243
F0.18518518518518523
sbasg243
F0.18518518518518523
sbasg243
F0.18518518518518523
sbasg243
F0.18518518518518523
sbasg243
F0.18518518518518523
sbag0
(g213
g2
Ntp576
Rp577
(dp578
g217
(lp579
g0
(g213
g2
Ntp580
Rp581
(dp582
g217
(lp583
g202
ag0
(g213
g2
Ntp584
Rp585
(dp586
g217
(lp587
g127
ag0
(g213
g2
Ntp588
Rp589
(dp590
g217
(lp591
g123
ag0
(g213
g2
Ntp592
Rp593
(dp594
g217
(lp595
g122
ag0
(g213
g2
Ntp596
Rp597
(dp598
g217
(lp599
g120
ag121
asg243
F0.18518518518518523
sbasg243
F0.18518518518518523
sbasg243
F0.18518518518518523
sbasg243
F0.18518518518518523
sbasg243
F0.18518518518518523
sbag0
(g213
g2
Ntp600
Rp601
(dp602
g217
(lp603
g0
(g213
g2
Ntp604
Rp605
(dp606
g217
(lp607
g190
ag0
(g213
g2
Ntp608
Rp609
(dp610
g217
(lp611
g183
ag0
(g213
g2
Ntp612
Rp613
(dp614
g217
(lp615
g181
ag0
(g213
g2
Ntp616
Rp617
(dp618
g217
(lp619
g180
ag0
(g213
g2
Ntp620
Rp621
(dp622
g217
(lp623
g179
ag0
(g213
g2
Ntp624
Rp625
(dp626
g217
(lp627
g166
ag178
asg243
F0.18518518518518523
sbasg243
F0.18518518518518523
sbasg243
F0.18518518518518523
sbasg243
F0.18518518518518523
sbasg243
F0.18518518518518523
sbasg243
F0.18518518518518523
sbag0
(g213
g2
Ntp628
Rp629
(dp630
g217
(lp631
g0
(g213
g2
Ntp632
Rp633
(dp634
g217
(lp635
g125
ag0
(g213
g2
Ntp636
Rp637
(dp638
g217
(lp639
g90
ag204
asg243
F0.18518518518518523
sbasg243
F0.18518518518518523
sbag0
(g213
g2
Ntp640
Rp641
(dp642
g217
(lp643
g168
ag0
(g213
g2
Ntp644
Rp645
(dp646
g217
(lp647
g126
ag0
(g213
g2
Ntp648
Rp649
(dp650
g217
(lp651
g110
ag0
(g213
g2
Ntp652
Rp653
(dp654
g217
(lp655
g80
ag124
asg243
F0.18518518518518523
sbasg243
F0.18518518518518523
sbasg243
F0.18518518518518523
sbasg243
F0.18518518518518523
sbasg243
F0.18518518518518523
sbasg243
F0.18518518518518523
sbasg243
F0.18518518518518523
sbasg243
F0.18518518518518523
sbasg243
F0.18518518518518523
sbasg243
F0.1923076923076923
sbasg243
F0.2142857142857143
sbasg243
F0.2142857142857143
sbasg243
F0.2142857142857143
sbasg243
F0.2142857142857143
sbasg243
F0.2142857142857143
sbag0
(g213
g2
Ntp656
Rp657
(dp658
g217
(lp659
g0
(g213
g2
Ntp660
Rp661
(dp662
g217
(lp663
g0
(g213
g2
Ntp664
Rp665
(dp666
g217
(lp667
g0
(g213
g2
Ntp668
Rp669
(dp670
g217
(lp671
g163
ag164
asg243
F0.0
sbag0
(g213
g2
Ntp672
Rp673
(dp674
g217
(lp675
g188
ag0
(g213
g2
Ntp676
Rp677
(dp678
g217
(lp679
g131
ag207
asg243
F0.18518518518518523
sbasg243
F0.18518518518518523
sbasg243
F0.2142857142857143
sbag0
(g213
g2
Ntp680
Rp681
(dp682
g217
(lp683
g0
(g213
g2
Ntp684
Rp685
(dp686
g217
(lp687
g189
ag0
(g213
g2
Ntp688
Rp689
(dp690
g217
(lp691
g177
ag0
(g213
g2
Ntp692
Rp693
(dp694
g217
(lp695
g175
ag0
(g213
g2
Ntp696
Rp697
(dp698
g217
(lp699
g174
ag0
(g213
g2
Ntp700
Rp701
(dp702
g217
(lp703
g171
ag0
(g213
g2
Ntp704
Rp705
(dp706
g217
(lp707
g165
ag0
(g213
g2
Ntp708
Rp709
(dp710
g217
(lp711
g173
ag176
asg243
F0.040000000000000036
sbasg243
F0.18518518518518523
sbasg243
F0.18518518518518523
sbasg243
F0.18518518518518523
sbasg243
F0.18518518518518523
sbasg243
F0.18518518518518523
sbasg243
F0.18518518518518523
sbag0
(g213
g2
Ntp712
Rp713
(dp714
g217
(lp715
g96
ag0
(g213
g2
Ntp716
Rp717
(dp718
g217
(lp719
g95
ag0
(g213
g2
Ntp720
Rp721
(dp722
g217
(lp723
g91
ag0
(g213
g2
Ntp724
Rp725
(dp726
g217
(lp727
g89
ag0
(g213
g2
Ntp728
Rp729
(dp730
g217
(lp731
g86
ag88
asg243
F0.18518518518518523
sbasg243
F0.18518518518518523
sbasg243
F0.18518518518518523
sbasg243
F0.18518518518518523
sbasg243
F0.2142857142857143
sbasg243
F0.2142857142857143
sbasg243
F0.2142857142857143
sbag0
(g213
g2
Ntp732
Rp733
(dp734
g217
(lp735
g0
(g213
g2
Ntp736
Rp737
(dp738
g217
(lp739
g0
(g213
g2
Ntp740
Rp741
(dp742
g217
(lp743
g71
ag72
asg243
F0.2142857142857143
sbag0
(g213
g2
Ntp744
Rp745
(dp746
g217
(lp747
g92
ag97
asg243
F0.2142857142857143
sbasg243
F0.2142857142857143
sbag0
(g213
g2
Ntp748
Rp749
(dp750
g217
(lp751
g0
(g213
g2
Ntp752
Rp753
(dp754
g217
(lp755
g118
ag0
(g213
g2
Ntp756
Rp757
(dp758
g217
(lp759
g146
ag0
(g213
g2
Ntp760
Rp761
(dp762
g217
(lp763
g142
ag0
(g213
g2
Ntp764
Rp765
(dp766
g217
(lp767
g140
ag141
asg243
F0.18518518518518523
sbasg243
F0.18518518518518523
sbasg243
F0.18518518518518523
sbasg243
F0.2142857142857143
sbag0
(g213
g2
Ntp768
Rp769
(dp770
g217
(lp771
g138
ag139
asg243
F0.2142857142857143
sbasg243
F0.2142857142857143
sbasg243
F0.2142857142857143
sbasg243
F0.2142857142857143
sbasg243
F0.2142857142857143
sbasg243
F0.2142857142857143
sbag0
(g213
g2
Ntp772
Rp773
(dp774
g217
(lp775
g0
(g213
g2
Ntp776
Rp777
(dp778
g217
(lp779
g65
ag66
asg243
F0.2727272727272727
sbag0
(g213
g2
Ntp780
Rp781
(dp782
g217
(lp783
g0
(g213
g2
Ntp784
Rp785
(dp786
g217
(lp787
g63
ag0
(g213
g2
Ntp788
Rp789
(dp790
g217
(lp791
g61
ag62
asg243
F0.0
sbasg243
F0.2727272727272727
sbag0
(g213
g2
Ntp792
Rp793
(dp794
g217
(lp795
g0
(g213
g2
Ntp796
Rp797
(dp798
g217
(lp799
g56
ag69
asg243
F0.2727272727272727
sbag0
(g213
g2
Ntp800
Rp801
(dp802
g217
(lp803
g67
ag0
(g213
g2
Ntp804
Rp805
(dp806
g217
(lp807
g0
(g213
g2
Ntp808
Rp809
(dp810
g217
(lp811
g0
(g213
g2
Ntp812
Rp813
(dp814
g217
(lp815
g32
ag0
(g213
g2
Ntp816
Rp817
(dp818
g217
(lp819
g28
ag0
(g213
g2
Ntp820
Rp821
(dp822
g217
(lp823
g26
ag27
asg243
F0.0
sbasg243
F0.0
sbasg243
F0.26086956521739135
sbag0
(g213
g2
Ntp824
Rp825
(dp826
g217
(lp827
g0
(g213
g2
Ntp828
Rp829
(dp830
g217
(lp831
g24
ag45
asg243
F0.2272727272727273
sbag0
(g213
g2
Ntp832
Rp833
(dp834
g217
(lp835
g0
(g213
g2
Ntp836
Rp837
(dp838
g217
(lp839
g0
(g213
g2
Ntp840
Rp841
(dp842
g217
(lp843
g40
ag50
asg243
F0.2272727272727273
sbag0
(g213
g2
Ntp844
Rp845
(dp846
g217
(lp847
g49
ag55
asg243
F0.23809523809523814
sbasg243
F0.23809523809523814
sbag0
(g213
g2
Ntp848
Rp849
(dp850
g217
(lp851
g0
(g213
g2
Ntp852
Rp853
(dp854
g217
(lp855
g68
ag0
(g213
g2
Ntp856
Rp857
(dp858
g217
(lp859
g64
ag0
(g213
g2
Ntp860
Rp861
(dp862
g217
(lp863
g59
ag0
(g213
g2
Ntp864
Rp865
(dp866
g217
(lp867
g54
ag0
(g213
g2
Ntp868
Rp869
(dp870
g217
(lp871
g47
ag0
(g213
g2
Ntp872
Rp873
(dp874
g217
(lp875
g52
ag53
asg243
F0.0
sbasg243
F0.23809523809523814
sbasg243
F0.23809523809523814
sbasg243
F0.23809523809523814
sbasg243
F0.23809523809523814
sbasg243
F0.23809523809523814
sbag0
(g213
g2
Ntp876
Rp877
(dp878
g217
(lp879
g0
(g213
g2
Ntp880
Rp881
(dp882
g217
(lp883
g0
(g213
g2
Ntp884
Rp885
(dp886
g217
(lp887
g36
ag48
asg243
F0.2272727272727273
sbag0
(g213
g2
Ntp888
Rp889
(dp890
g217
(lp891
g0
(g213
g2
Ntp892
Rp893
(dp894
g217
(lp895
g34
ag46
asg243
F0.2272727272727273
sbag0
(g213
g2
Ntp896
Rp897
(dp898
g217
(lp899
g44
ag0
(g213
g2
Ntp900
Rp901
(dp902
g217
(lp903
g41
ag0
(g213
g2
Ntp904
Rp905
(dp906
g217
(lp907
g37
ag0
(g213
g2
Ntp908
Rp909
(dp910
g217
(lp911
g35
ag0
(g213
g2
Ntp912
Rp913
(dp914
g217
(lp915
g23
ag33
asg243
F0.2272727272727273
sbasg243
F0.2272727272727273
sbasg243
F0.2272727272727273
sbasg243
F0.2272727272727273
sbasg243
F0.2272727272727273
sbasg243
F0.2272727272727273
sbasg243
F0.2272727272727273
sbag0
(g213
g2
Ntp916
Rp917
(dp918
g217
(lp919
g0
(g213
g2
Ntp920
Rp921
(dp922
g217
(lp923
g43
ag51
asg243
F0.2272727272727273
sbag0
(g213
g2
Ntp924
Rp925
(dp926
g217
(lp927
g60
ag0
(g213
g2
Ntp928
Rp929
(dp930
g217
(lp931
g57
ag58
asg243
F0.23809523809523814
sbasg243
F0.23809523809523814
sbasg243
F0.23809523809523814
sbasg243
F0.23809523809523814
sbasg243
F0.23809523809523814
sbasg243
F0.23809523809523814
sbasg243
F0.26086956521739135
sbasg243
F0.26086956521739135
sbag0
(g213
g2
Ntp932
Rp933
(dp934
g217
(lp935
g0
(g213
g2
Ntp936
Rp937
(dp938
g217
(lp939
g42
ag0
(g213
g2
Ntp940
Rp941
(dp942
g217
(lp943
g38
ag39
asg243
F0.0
sbasg243
F0.26086956521739135
sbag0
(g213
g2
Ntp944
Rp945
(dp946
g217
(lp947
g0
(g213
g2
Ntp948
Rp949
(dp950
g217
(lp951
g25
ag29
asg243
F0.26086956521739135
sbag0
(g213
g2
Ntp952
Rp953
(dp954
g217
(lp955
g30
ag31
asg243
F0.26086956521739135
sbasg243
F0.26086956521739135
sbasg243
F0.26086956521739135
sbasg243
F0.26086956521739135
sbasg243
F0.2727272727272727
sbasg243
F0.2727272727272727
sbasg243
F0.2727272727272727
sbasg243
F0.2727272727272727
sbasg243
F0.33333333333333337
sbag0
(g213
g2
Ntp956
Rp957
(dp958
g217
(lp959
g70
ag0
(g213
g2
Ntp960
Rp961
(dp962
g217
(lp963
g0
(g213
g2
Ntp964
Rp965
(dp966
g217
(lp967
g22
ag0
(g213
g2
Ntp968
Rp969
(dp970
g217
(lp971
g20
ag21
asg243
F0.3157894736842105
sbasg243
F0.3157894736842105
sbag0
(g213
g2
Ntp972
Rp973
(dp974
g217
(lp975
g0
(g213
g2
Ntp976
Rp977
(dp978
g217
(lp979
g0
(g213
g2
Ntp980
Rp981
(dp982
g217
(lp983
g16
ag0
(g213
g2
Ntp984
Rp985
(dp986
g217
(lp987
g15
ag17
asg243
F0.13043478260869568
sbasg243
F0.20833333333333337
sbag0
(g213
g2
Ntp988
Rp989
(dp990
g217
(lp991
g18
ag19
asg243
F0.25
sbasg243
F0.25
sbag0
(g213
g2
Ntp992
Rp993
(dp994
g217
(lp995
g0
(g213
g2
Ntp996
Rp997
(dp998
g217
(lp999
g13
ag14
asg243
F0.25
sbag0
(g213
g2
Ntp1000
Rp1001
(dp1002
g217
(lp1003
g0
(g213
g2
Ntp1004
Rp1005
(dp1006
g217
(lp1007
g9
ag10
asg243
F0.25
sbag0
(g213
g2
Ntp1008
Rp1009
(dp1010
g217
(lp1011
g11
ag12
asg243
F0.25
sbasg243
F0.25
sbasg243
F0.25
sbasg243
F0.5517241379310345
sbasg243
F0.6296296296296297
sbasg243
F0.92
sbasg243
F0.9230769230769231
sbasS'linkage'
p1012
Nsb.