(idistribute
SampleDistribution
p0
(dp1
S'max_val'
p2
I47
sS'buckets'
p3
I45
sS'dist_table'
p4
(lp5
F0.0008019246190858059
aF0.0032076984763432237
aF0.007217321571772253
aF0.012028869286287089
aF0.019246190858059342
aF0.03688853247794707
aF0.08740978348035285
aF0.18323977546110665
aF0.3235765838011227
aF0.4887730553327987
aF0.6507618283881316
aF0.7738572574178028
aF0.855252606255012
aF0.9133921411387329
aF0.9506816359262229
aF0.9691259021651965
aF0.9815557337610264
aF0.9883720930232558
aF0.9927826784282278
aF0.9947874899759422
aF0.9963913392141138
aF0.9963913392141138
aF0.9967923015236567
aF0.9975942261427426
aF0.9975942261427426
aF0.9979951884522855
aF0.9979951884522855
aF0.9979951884522855
aF0.9979951884522855
aF0.9983961507618284
aF0.9983961507618284
aF0.9983961507618284
aF0.9983961507618284
aF0.9987971130713713
aF0.9987971130713713
aF0.9987971130713713
aF0.9987971130713713
aF0.9991980753809142
aF0.9991980753809142
aF0.9995990376904571
aF0.9995990376904571
aF0.9995990376904571
aF0.9995990376904571
aF0.9995990376904571
aF1.0
asS'granularity'
p6
I1
sS'min_val'
p7
I2
sb.