(idistribute
SampleDistribution
p0
(dp1
S'max_val'
p2
I255
sS'buckets'
p3
I255
sS'dist_table'
p4
(lp5
F0.00011035091591260208
aF0.0013242109909512249
aF0.005407194879717502
aF0.02240123593025822
aF0.08188037960715074
aF0.18196866033988082
aF0.30048554403001543
aF0.4027808430809976
aF0.4764952549106158
aF0.5276980798940631
aF0.5676451114544251
aF0.5989847715736041
aF0.6313175899359965
aF0.6592363716618848
aF0.6883690134628118
aF0.7188258662546899
aF0.7508276318693445
aF0.785367468549989
aF0.8191348488192453
aF0.8540057382476275
aF0.8825866254689914
aF0.9042154049878613
aF0.9239682189362172
aF0.9384241889207681
aF0.9494592805120282
aF0.959501213860075
aF0.9683292871330832
aF0.9739571838446259
aF0.9788126241447804
aF0.9838887662767601
aF0.9871992937541382
aF0.9900684175678658
aF0.9912822776429044
aF0.9921650849702053
aF0.9930478922975061
aF0.9944824542043699
aF0.9951445596998455
aF0.9959170161112337
aF0.996689472522622
aF0.9971308761862724
aF0.9973515780180976
aF0.9977929816817479
aF0.9980136835135731
aF0.9983447362613109
aF0.9984550871772235
aF0.9985654380931361
aF0.998896490840874
aF0.9990068417567866
aF0.9990068417567866
aF0.9990068417567866
aF0.9990068417567866
aF0.9990068417567866
aF0.9990068417567866
aF0.9991171926726992
aF0.9992275435886118
aF0.9993378945045244
aF0.9993378945045244
aF0.9993378945045244
aF0.9993378945045244
aF0.9993378945045244
aF0.9993378945045244
aF0.9993378945045244
aF0.999448245420437
aF0.9996689472522622
aF0.9996689472522622
aF0.9996689472522622
aF0.9996689472522622
aF0.9996689472522622
aF0.9996689472522622
aF0.9997792981681748
aF0.9997792981681748
aF0.9997792981681748
aF0.9998896490840874
aF0.9998896490840874
aF0.9998896490840874
aF0.9998896490840874
aF0.9998896490840874
aF0.9998896490840874
aF0.9998896490840874
aF0.9998896490840874
aF0.9998896490840874
aF0.9998896490840874
aF0.9998896490840874
aF0.9998896490840874
aF0.9998896490840874
aF0.9998896490840874
aF0.9998896490840874
aF0.9998896490840874
aF0.9998896490840874
aF0.9998896490840874
aF0.9998896490840874
aF0.9998896490840874
aF0.9998896490840874
aF0.9998896490840874
aF0.9998896490840874
aF0.9998896490840874
aF0.9998896490840874
aF0.9998896490840874
aF0.9998896490840874
aF0.9998896490840874
aF0.9998896490840874
aF0.9998896490840874
aF0.9998896490840874
aF0.9998896490840874
aF0.9998896490840874
aF0.9998896490840874
aF0.9998896490840874
aF0.9998896490840874
aF0.9998896490840874
aF0.9998896490840874
aF0.9998896490840874
aF0.9998896490840874
aF0.9998896490840874
aF0.9998896490840874
aF0.9998896490840874
aF0.9998896490840874
aF0.9998896490840874
aF0.9998896490840874
aF0.9998896490840874
aF0.9998896490840874
aF0.9998896490840874
aF0.9998896490840874
aF0.9998896490840874
aF0.9998896490840874
aF0.9998896490840874
aF0.9998896490840874
aF0.9998896490840874
aF0.9998896490840874
aF0.9998896490840874
aF0.9998896490840874
aF0.9998896490840874
aF0.9998896490840874
aF0.9998896490840874
aF0.9998896490840874
aF0.9998896490840874
aF0.9998896490840874
aF0.9998896490840874
aF0.9998896490840874
aF0.9998896490840874
aF0.9998896490840874
aF0.9998896490840874
aF0.9998896490840874
aF0.9998896490840874
aF0.9998896490840874
aF0.9998896490840874
aF0.9998896490840874
aF0.9998896490840874
aF0.9998896490840874
aF0.9998896490840874
aF0.9998896490840874
aF0.9998896490840874
aF0.9998896490840874
aF0.9998896490840874
aF0.9998896490840874
aF0.9998896490840874
aF0.9998896490840874
aF0.9998896490840874
aF0.9998896490840874
aF0.9998896490840874
aF0.9998896490840874
aF0.9998896490840874
aF0.9998896490840874
aF0.9998896490840874
aF0.9998896490840874
aF0.9998896490840874
aF0.9998896490840874
aF0.9998896490840874
aF0.9998896490840874
aF0.9998896490840874
aF0.9998896490840874
aF0.9998896490840874
aF0.9998896490840874
aF0.9998896490840874
aF0.9998896490840874
aF0.9998896490840874
aF0.9998896490840874
aF0.9998896490840874
aF0.9998896490840874
aF0.9998896490840874
aF0.9998896490840874
aF0.9998896490840874
aF0.9998896490840874
aF0.9998896490840874
aF0.9998896490840874
aF0.9998896490840874
aF0.9998896490840874
aF0.9998896490840874
aF0.9998896490840874
aF0.9998896490840874
aF0.9998896490840874
aF0.9998896490840874
aF0.9998896490840874
aF0.9998896490840874
aF0.9998896490840874
aF0.9998896490840874
aF0.9998896490840874
aF0.9998896490840874
aF0.9998896490840874
aF0.9998896490840874
aF0.9998896490840874
aF0.9998896490840874
aF0.9998896490840874
aF0.9998896490840874
aF0.9998896490840874
aF0.9998896490840874
aF0.9998896490840874
aF0.9998896490840874
aF0.9998896490840874
aF0.9998896490840874
aF0.9998896490840874
aF0.9998896490840874
aF0.9998896490840874
aF0.9998896490840874
aF0.9998896490840874
aF0.9998896490840874
aF0.9998896490840874
aF0.9998896490840874
aF0.9998896490840874
aF0.9998896490840874
aF0.9998896490840874
aF0.9998896490840874
aF0.9998896490840874
aF0.9998896490840874
aF0.9998896490840874
aF0.9998896490840874
aF0.9998896490840874
aF0.9998896490840874
aF0.9998896490840874
aF0.9998896490840874
aF0.9998896490840874
aF0.9998896490840874
aF0.9998896490840874
aF0.9998896490840874
aF0.9998896490840874
aF0.9998896490840874
aF0.9998896490840874
aF0.9998896490840874
aF0.9998896490840874
aF0.9998896490840874
aF0.9998896490840874
aF0.9998896490840874
aF0.9998896490840874
aF0.9998896490840874
aF0.9998896490840874
aF0.9998896490840874
aF0.9998896490840874
aF0.9998896490840874
aF0.9998896490840874
aF0.9998896490840874
aF0.9998896490840874
aF0.9998896490840874
aF0.9998896490840874
aF0.9998896490840874
aF0.9998896490840874
aF1.0
asS'granularity'
p6
I1
sS'min_val'
p7
I0
sb.