(idistribute
SampleDistribution
p0
(dp1
S'max_val'
p2
F0.002987825196479222
sS'buckets'
p3
I5000
sS'dist_table'
p4
(lp5
F0.00011035091591260208
aF0.00011035091591260208
aF0.00011035091591260208
aF0.00022070183182520416
aF0.00022070183182520416
aF0.00022070183182520416
aF0.00022070183182520416
aF0.00022070183182520416
aF0.00022070183182520416
aF0.00022070183182520416
aF0.00022070183182520416
aF0.00022070183182520416
aF0.00022070183182520416
aF0.0003310527477378062
aF0.0003310527477378062
aF0.0003310527477378062
aF0.0003310527477378062
aF0.0003310527477378062
aF0.0003310527477378062
aF0.0003310527477378062
aF0.0005517545795630103
aF0.0005517545795630103
aF0.0006621054954756124
aF0.0007724564113882145
aF0.0007724564113882145
aF0.0008828073273008167
aF0.0009931582432134187
aF0.0009931582432134187
aF0.0009931582432134187
aF0.0009931582432134187
aF0.0009931582432134187
aF0.0009931582432134187
aF0.0009931582432134187
aF0.0009931582432134187
aF0.0009931582432134187
aF0.0009931582432134187
aF0.0009931582432134187
aF0.0009931582432134187
aF0.0009931582432134187
aF0.0009931582432134187
aF0.0009931582432134187
aF0.0009931582432134187
aF0.0009931582432134187
aF0.0009931582432134187
aF0.0009931582432134187
aF0.0009931582432134187
aF0.0009931582432134187
aF0.0009931582432134187
aF0.0009931582432134187
aF0.0009931582432134187
aF0.0009931582432134187
aF0.0009931582432134187
aF0.0009931582432134187
aF0.0009931582432134187
aF0.0009931582432134187
aF0.0009931582432134187
aF0.0009931582432134187
aF0.0009931582432134187
aF0.0009931582432134187
aF0.0009931582432134187
aF0.0009931582432134187
aF0.0009931582432134187
aF0.0009931582432134187
aF0.0009931582432134187
aF0.0009931582432134187
aF0.0009931582432134187
aF0.0009931582432134187
aF0.0009931582432134187
aF0.0009931582432134187
aF0.0009931582432134187
aF0.0009931582432134187
aF0.0009931582432134187
aF0.0009931582432134187
aF0.0009931582432134187
aF0.0009931582432134187
aF0.0009931582432134187
aF0.0009931582432134187
aF0.0009931582432134187
aF0.0009931582432134187
aF0.0009931582432134187
aF0.0009931582432134187
aF0.0009931582432134187
aF0.0009931582432134187
aF0.0009931582432134187
aF0.0009931582432134187
aF0.0009931582432134187
aF0.0009931582432134187
aF0.0009931582432134187
aF0.0009931582432134187
aF0.0009931582432134187
aF0.0009931582432134187
aF0.0009931582432134187
aF0.0009931582432134187
aF0.0009931582432134187
aF0.0009931582432134187
aF0.0009931582432134187
aF0.0009931582432134187
aF0.0009931582432134187
aF0.0009931582432134187
aF0.0009931582432134187
aF0.0009931582432134187
aF0.0009931582432134187
aF0.0009931582432134187
aF0.0009931582432134187
aF0.0009931582432134187
aF0.0009931582432134187
aF0.0009931582432134187
aF0.0009931582432134187
aF0.0009931582432134187
aF0.0009931582432134187
aF0.0009931582432134187
aF0.0009931582432134187
aF0.0009931582432134187
aF0.0009931582432134187
aF0.0009931582432134187
aF0.0009931582432134187
aF0.0009931582432134187
aF0.0009931582432134187
aF0.0009931582432134187
aF0.0009931582432134187
aF0.0009931582432134187
aF0.0009931582432134187
aF0.0009931582432134187
aF0.0009931582432134187
aF0.0009931582432134187
aF0.0009931582432134187
aF0.0009931582432134187
aF0.0009931582432134187
aF0.0009931582432134187
aF0.0011035091591260207
aF0.0011035091591260207
aF0.0011035091591260207
aF0.0011035091591260207
aF0.0011035091591260207
aF0.0011035091591260207
aF0.0011035091591260207
aF0.0011035091591260207
aF0.0011035091591260207
aF0.0011035091591260207
aF0.0011035091591260207
aF0.0011035091591260207
aF0.0011035091591260207
aF0.0011035091591260207
aF0.0011035091591260207
aF0.0011035091591260207
aF0.0011035091591260207
aF0.0011035091591260207
aF0.0011035091591260207
aF0.0011035091591260207
aF0.0011035091591260207
aF0.0011035091591260207
aF0.0011035091591260207
aF0.0011035091591260207
aF0.0011035091591260207
aF0.0011035091591260207
aF0.0011035091591260207
aF0.0011035091591260207
aF0.0011035091591260207
aF0.0011035091591260207
aF0.0011035091591260207
aF0.0011035091591260207
aF0.0011035091591260207
aF0.0011035091591260207
aF0.0011035091591260207
aF0.0011035091591260207
aF0.0011035091591260207
aF0.0011035091591260207
aF0.0011035091591260207
aF0.0011035091591260207
aF0.0011035091591260207
aF0.0011035091591260207
aF0.0011035091591260207
aF0.0011035091591260207
aF0.0011035091591260207
aF0.0011035091591260207
aF0.0011035091591260207
aF0.0011035091591260207
aF0.0011035091591260207
aF0.0011035091591260207
aF0.0011035091591260207
aF0.0011035091591260207
aF0.0011035091591260207
aF0.0011035091591260207
aF0.0011035091591260207
aF0.0011035091591260207
aF0.0011035091591260207
aF0.0011035091591260207
aF0.0011035091591260207
aF0.0011035091591260207
aF0.0011035091591260207
aF0.0011035091591260207
aF0.0011035091591260207
aF0.0011035091591260207
aF0.0011035091591260207
aF0.0011035091591260207
aF0.0011035091591260207
aF0.0011035091591260207
aF0.0011035091591260207
aF0.0011035091591260207
aF0.0011035091591260207
aF0.0011035091591260207
aF0.0011035091591260207
aF0.0011035091591260207
aF0.0011035091591260207
aF0.0011035091591260207
aF0.0011035091591260207
aF0.0011035091591260207
aF0.0012138600750386229
aF0.0012138600750386229
aF0.0012138600750386229
aF0.0012138600750386229
aF0.0012138600750386229
aF0.0012138600750386229
aF0.0012138600750386229
aF0.0012138600750386229
aF0.0012138600750386229
aF0.0012138600750386229
aF0.0013242109909512249
aF0.0013242109909512249
aF0.0013242109909512249
aF0.0013242109909512249
aF0.0013242109909512249
aF0.0013242109909512249
aF0.0013242109909512249
aF0.0013242109909512249
aF0.0013242109909512249
aF0.0013242109909512249
aF0.0013242109909512249
aF0.0013242109909512249
aF0.0013242109909512249
aF0.0013242109909512249
aF0.0013242109909512249
aF0.0013242109909512249
aF0.0013242109909512249
aF0.0013242109909512249
aF0.0013242109909512249
aF0.0013242109909512249
aF0.0014345619068638269
aF0.0014345619068638269
aF0.0014345619068638269
aF0.0014345619068638269
aF0.0014345619068638269
aF0.001544912822776429
aF0.001544912822776429
aF0.001544912822776429
aF0.001544912822776429
aF0.001544912822776429
aF0.001544912822776429
aF0.001544912822776429
aF0.001544912822776429
aF0.001544912822776429
aF0.001544912822776429
aF0.001544912822776429
aF0.001544912822776429
aF0.001544912822776429
aF0.001544912822776429
aF0.001544912822776429
aF0.001544912822776429
aF0.001655263738689031
aF0.0017656146546016333
aF0.0017656146546016333
aF0.0017656146546016333
aF0.0017656146546016333
aF0.0017656146546016333
aF0.0018759655705142353
aF0.0018759655705142353
aF0.0018759655705142353
aF0.0018759655705142353
aF0.0018759655705142353
aF0.0018759655705142353
aF0.0018759655705142353
aF0.0018759655705142353
aF0.0018759655705142353
aF0.0018759655705142353
aF0.0018759655705142353
aF0.0018759655705142353
aF0.0018759655705142353
aF0.0018759655705142353
aF0.0018759655705142353
aF0.0018759655705142353
aF0.0018759655705142353
aF0.0018759655705142353
aF0.0018759655705142353
aF0.0018759655705142353
aF0.0018759655705142353
aF0.0018759655705142353
aF0.0018759655705142353
aF0.0018759655705142353
aF0.0018759655705142353
aF0.0018759655705142353
aF0.0018759655705142353
aF0.0018759655705142353
aF0.0018759655705142353
aF0.0018759655705142353
aF0.0018759655705142353
aF0.0018759655705142353
aF0.0018759655705142353
aF0.0018759655705142353
aF0.0018759655705142353
aF0.0018759655705142353
aF0.0018759655705142353
aF0.0019863164864268373
aF0.0019863164864268373
aF0.0019863164864268373
aF0.0019863164864268373
aF0.0019863164864268373
aF0.0019863164864268373
aF0.0019863164864268373
aF0.0019863164864268373
aF0.0019863164864268373
aF0.0019863164864268373
aF0.0020966674023394395
aF0.0020966674023394395
aF0.0022070183182520413
aF0.0022070183182520413
aF0.0022070183182520413
aF0.0022070183182520413
aF0.0022070183182520413
aF0.0022070183182520413
aF0.0022070183182520413
aF0.0022070183182520413
aF0.0022070183182520413
aF0.0022070183182520413
aF0.0022070183182520413
aF0.0022070183182520413
aF0.0022070183182520413
aF0.0022070183182520413
aF0.0022070183182520413
aF0.0022070183182520413
aF0.0022070183182520413
aF0.0022070183182520413
aF0.0022070183182520413
aF0.0022070183182520413
aF0.0022070183182520413
aF0.0022070183182520413
aF0.0022070183182520413
aF0.0023173692341646435
aF0.0023173692341646435
aF0.0023173692341646435
aF0.0023173692341646435
aF0.0023173692341646435
aF0.0023173692341646435
aF0.0023173692341646435
aF0.0023173692341646435
aF0.0023173692341646435
aF0.0023173692341646435
aF0.0023173692341646435
aF0.0023173692341646435
aF0.0023173692341646435
aF0.0023173692341646435
aF0.0023173692341646435
aF0.0023173692341646435
aF0.0023173692341646435
aF0.0024277201500772457
aF0.0024277201500772457
aF0.0024277201500772457
aF0.0024277201500772457
aF0.0024277201500772457
aF0.0024277201500772457
aF0.0024277201500772457
aF0.0024277201500772457
aF0.0024277201500772457
aF0.0024277201500772457
aF0.0024277201500772457
aF0.0024277201500772457
aF0.0024277201500772457
aF0.0024277201500772457
aF0.0025380710659898475
aF0.0025380710659898475
aF0.0025380710659898475
aF0.0025380710659898475
aF0.0025380710659898475
aF0.0025380710659898475
aF0.0025380710659898475
aF0.0026484219819024497
aF0.0026484219819024497
aF0.0026484219819024497
aF0.002758772897815052
aF0.002758772897815052
aF0.002758772897815052
aF0.002758772897815052
aF0.002758772897815052
aF0.002758772897815052
aF0.0028691238137276537
aF0.0028691238137276537
aF0.0028691238137276537
aF0.0028691238137276537
aF0.0028691238137276537
aF0.0028691238137276537
aF0.0028691238137276537
aF0.0028691238137276537
aF0.0028691238137276537
aF0.0028691238137276537
aF0.0028691238137276537
aF0.0028691238137276537
aF0.0028691238137276537
aF0.0028691238137276537
aF0.0028691238137276537
aF0.0028691238137276537
aF0.0028691238137276537
aF0.0028691238137276537
aF0.002979474729640256
aF0.003089825645552858
aF0.003089825645552858
aF0.003089825645552858
aF0.003089825645552858
aF0.003089825645552858
aF0.003089825645552858
aF0.00320017656146546
aF0.00320017656146546
aF0.00320017656146546
aF0.003310527477378062
aF0.003310527477378062
aF0.003310527477378062
aF0.003310527477378062
aF0.003310527477378062
aF0.003310527477378062
aF0.003310527477378062
aF0.003310527477378062
aF0.0034208783932906644
aF0.0035312293092032666
aF0.0035312293092032666
aF0.0035312293092032666
aF0.0035312293092032666
aF0.0035312293092032666
aF0.0035312293092032666
aF0.0035312293092032666
aF0.0035312293092032666
aF0.0035312293092032666
aF0.0035312293092032666
aF0.0035312293092032666
aF0.0036415802251158684
aF0.0036415802251158684
aF0.0036415802251158684
aF0.0036415802251158684
aF0.0037519311410284706
aF0.0037519311410284706
aF0.0037519311410284706
aF0.0037519311410284706
aF0.0037519311410284706
aF0.0037519311410284706
aF0.003862282056941073
aF0.003862282056941073
aF0.003862282056941073
aF0.003862282056941073
aF0.003862282056941073
aF0.003862282056941073
aF0.003862282056941073
aF0.003862282056941073
aF0.003862282056941073
aF0.003972632972853675
aF0.003972632972853675
aF0.003972632972853675
aF0.003972632972853675
aF0.003972632972853675
aF0.003972632972853675
aF0.004082983888766277
aF0.004082983888766277
aF0.004082983888766277
aF0.004082983888766277
aF0.004303685720591481
aF0.004303685720591481
aF0.004303685720591481
aF0.004303685720591481
aF0.004414036636504083
aF0.004414036636504083
aF0.004414036636504083
aF0.004414036636504083
aF0.004414036636504083
aF0.004634738468329287
aF0.004634738468329287
aF0.004634738468329287
aF0.004634738468329287
aF0.004634738468329287
aF0.004634738468329287
aF0.004634738468329287
aF0.004634738468329287
aF0.004634738468329287
aF0.004634738468329287
aF0.004634738468329287
aF0.004745089384241889
aF0.0048554403001544915
aF0.0048554403001544915
aF0.004965791216067094
aF0.004965791216067094
aF0.004965791216067094
aF0.004965791216067094
aF0.004965791216067094
aF0.004965791216067094
aF0.005076142131979695
aF0.005076142131979695
aF0.005076142131979695
aF0.005076142131979695
aF0.005076142131979695
aF0.005076142131979695
aF0.005076142131979695
aF0.005076142131979695
aF0.005076142131979695
aF0.005076142131979695
aF0.005076142131979695
aF0.005186493047892297
aF0.005407194879717502
aF0.005407194879717502
aF0.005517545795630104
aF0.005517545795630104
aF0.005627896711542706
aF0.0057382476274553075
aF0.0057382476274553075
aF0.00584859854336791
aF0.00584859854336791
aF0.005958949459280512
aF0.005958949459280512
aF0.006069300375193114
aF0.006069300375193114
aF0.006069300375193114
aF0.006069300375193114
aF0.0062900022070183186
aF0.0062900022070183186
aF0.00640035312293092
aF0.00640035312293092
aF0.006510704038843522
aF0.006621054954756124
aF0.0067314058706687266
aF0.006841756786581329
aF0.006841756786581329
aF0.006952107702493931
aF0.007062458618406533
aF0.007062458618406533
aF0.007062458618406533
aF0.007062458618406533
aF0.007062458618406533
aF0.007062458618406533
aF0.007062458618406533
aF0.0071728095343191346
aF0.0071728095343191346
aF0.007283160450231737
aF0.007393511366144339
aF0.007393511366144339
aF0.007393511366144339
aF0.007503862282056941
aF0.007503862282056941
aF0.007503862282056941
aF0.007503862282056941
aF0.007503862282056941
aF0.007614213197969543
aF0.007614213197969543
aF0.007614213197969543
aF0.007724564113882146
aF0.007724564113882146
aF0.007724564113882146
aF0.007724564113882146
aF0.007834915029794748
aF0.00794526594570735
aF0.00794526594570735
aF0.008055616861619952
aF0.008055616861619952
aF0.008165967777532554
aF0.008386669609357758
aF0.008386669609357758
aF0.008607371441182963
aF0.008607371441182963
aF0.008607371441182963
aF0.008938424188920768
aF0.00904877510483337
aF0.00904877510483337
aF0.009159126020745973
aF0.009269476936658574
aF0.009379827852571177
aF0.009490178768483779
aF0.009490178768483779
aF0.009490178768483779
aF0.00960052968439638
aF0.009710880600308983
aF0.009710880600308983
aF0.009710880600308983
aF0.009821231516221584
aF0.009931582432134187
aF0.009931582432134187
aF0.010041933348046789
aF0.010041933348046789
aF0.010262635179871993
aF0.010262635179871993
aF0.010262635179871993
aF0.010262635179871993
aF0.010372986095784595
aF0.010372986095784595
aF0.010372986095784595
aF0.010483337011697198
aF0.010483337011697198
aF0.010593687927609799
aF0.010593687927609799
aF0.010704038843522402
aF0.010704038843522402
aF0.010704038843522402
aF0.010704038843522402
aF0.010704038843522402
aF0.010814389759435003
aF0.010924740675347605
aF0.01114544250717281
aF0.01114544250717281
aF0.011366144338998014
aF0.011476495254910615
aF0.011476495254910615
aF0.01169719708673582
aF0.01169719708673582
aF0.01169719708673582
aF0.01169719708673582
aF0.01169719708673582
aF0.011917898918561024
aF0.011917898918561024
aF0.011917898918561024
aF0.011917898918561024
aF0.011917898918561024
aF0.011917898918561024
aF0.012138600750386228
aF0.012359302582211433
aF0.012469653498124034
aF0.012469653498124034
aF0.012690355329949238
aF0.01280070624586184
aF0.012911057161774443
aF0.013021408077687044
aF0.013131758993599647
aF0.013242109909512249
aF0.013242109909512249
aF0.013242109909512249
aF0.013242109909512249
aF0.013573162657250054
aF0.013793864489075259
aF0.013793864489075259
aF0.013904215404987862
aF0.013904215404987862
aF0.013904215404987862
aF0.013904215404987862
aF0.013904215404987862
aF0.014124917236813066
aF0.014124917236813066
aF0.014124917236813066
aF0.014235268152725668
aF0.014455969984550872
aF0.014676671816376077
aF0.014787022732288678
aF0.01489737364820128
aF0.01489737364820128
aF0.01489737364820128
aF0.015007724564113882
aF0.015007724564113882
aF0.015007724564113882
aF0.015007724564113882
aF0.015007724564113882
aF0.015007724564113882
aF0.015338777311851688
aF0.015559479143676893
aF0.015669830059589496
aF0.015669830059589496
aF0.016111233723239905
aF0.016331935555065107
aF0.01644228647097771
aF0.01644228647097771
aF0.016662988302802915
aF0.016662988302802915
aF0.016773339218715516
aF0.01699404105054072
aF0.017214742882365925
aF0.017325093798278526
aF0.017435444714191128
aF0.01765614654601633
aF0.017766497461928935
aF0.017766497461928935
aF0.01820790112557934
aF0.018538953873317148
aF0.018538953873317148
aF0.01864930478922975
aF0.018759655705142354
aF0.018980357536967557
aF0.01920105936879276
aF0.01920105936879276
aF0.01920105936879276
aF0.019311410284705365
aF0.019421761200617966
aF0.01964246303244317
aF0.01964246303244317
aF0.01975281394835577
aF0.019863164864268375
aF0.019973515780180976
aF0.020083866696093577
aF0.02019421761200618
aF0.02030456852791878
aF0.020525270359743986
aF0.020525270359743986
aF0.020525270359743986
aF0.02074597219156919
aF0.020966674023394395
aF0.021187375855219598
aF0.0212977267711322
aF0.0212977267711322
aF0.021628779518870007
aF0.021628779518870007
aF0.021739130434782608
aF0.021739130434782608
aF0.02184948135069521
aF0.02184948135069521
aF0.022180534098433017
aF0.02229088501434562
aF0.022511586846170824
aF0.022732288677996027
aF0.022732288677996027
aF0.02284263959390863
aF0.023173692341646436
aF0.02339439417347164
aF0.02339439417347164
aF0.02339439417347164
aF0.023615096005296845
aF0.023835797837122048
aF0.024056499668947254
aF0.024166850584859855
aF0.024277201500772456
aF0.024387552416685058
aF0.02449790333259766
aF0.024939306996248068
aF0.024939306996248068
aF0.024939306996248068
aF0.025160008828073274
aF0.025380710659898477
aF0.025380710659898477
aF0.025711763407636284
aF0.025711763407636284
aF0.025932465239461487
aF0.02604281615537409
aF0.026153167071286693
aF0.026704921650849704
aF0.026815272566762305
aF0.02714632531450011
aF0.027587728978150518
aF0.02769807989406312
aF0.028139483557713528
aF0.028249834473626133
aF0.028249834473626133
aF0.028580887221363937
aF0.028801589053189143
aF0.028911939969101744
aF0.028911939969101744
aF0.029022290885014346
aF0.029022290885014346
aF0.029463694548664755
aF0.029463694548664755
aF0.029684396380489957
aF0.02979474729640256
aF0.030125800044140366
aF0.030236150960052968
aF0.030236150960052968
aF0.030677554623703376
aF0.030677554623703376
aF0.03145001103509159
aF0.031560361951004194
aF0.03167071286691679
aF0.031891414698742
aF0.031891414698742
aF0.032112116530567204
aF0.03233281836239241
aF0.03233281836239241
aF0.03244316927830501
aF0.032663871110130215
aF0.03288457294195542
aF0.03299492385786802
aF0.03310527477378062
aF0.03354667843743103
aF0.03365702935334363
aF0.03387773118516884
aF0.03398808210108144
aF0.03420878393290664
aF0.03420878393290664
aF0.03476053851246965
aF0.03476053851246965
aF0.03498124034429486
aF0.03531229309203266
aF0.035422644007945266
aF0.03553299492385787
aF0.03575369675568307
aF0.03608474950342088
aF0.03630545133524608
aF0.03641580225115868
aF0.03663650408298389
aF0.03674685499889649
aF0.037077907746634296
aF0.037077907746634296
aF0.037408960494372104
aF0.03774001324210991
aF0.03774001324210991
aF0.03807106598984772
aF0.03840211873758552
aF0.03840211873758552
aF0.03840211873758552
aF0.03840211873758552
aF0.03862282056941073
aF0.03895387331714853
aF0.03895387331714853
aF0.039064224233061134
aF0.039064224233061134
aF0.039064224233061134
aF0.03950562789671154
aF0.03983668064444935
aF0.04005738247627455
aF0.04027808430809976
aF0.04060913705583756
aF0.04082983888766277
aF0.04116089163540057
aF0.04138159346722578
aF0.04138159346722578
aF0.041822997130876186
aF0.0422644007945266
aF0.0422644007945266
aF0.04281615537408961
aF0.04314720812182741
aF0.043257559037740013
aF0.04358861178547782
aF0.04391966453321563
aF0.04391966453321563
aF0.04414036636504083
aF0.04447141911277864
aF0.04469212094460384
aF0.044912822776429044
aF0.04557492827190466
aF0.04590598101964246
aF0.04623703376738027
aF0.04689913926285588
aF0.04734054292650629
aF0.0475612447583315
aF0.047671595674244095
aF0.0478922975060693
aF0.0480026484219819
aF0.04844405208563231
aF0.04888545574928272
aF0.04910615758110792
aF0.049326859412933126
aF0.04976826307658354
aF0.04998896490840874
aF0.05065107040388435
aF0.05065107040388435
aF0.050982123151622157
aF0.05120282498344736
aF0.05120282498344736
aF0.05142352681527257
aF0.05142352681527257
aF0.05142352681527257
aF0.05142352681527257
aF0.051754579563010376
aF0.05197528139483558
aF0.05208563231074818
aF0.05219598322666078
aF0.05263738689031119
aF0.052968439638048995
aF0.052968439638048995
aF0.0532994923857868
aF0.05340984330169941
aF0.05363054513352461
aF0.05385124696534981
aF0.05396159788126242
aF0.054071948797175015
aF0.05473405429265063
aF0.05484440520856323
aF0.05484440520856323
aF0.05506510704038844
aF0.055175457956301036
aF0.05550651070403884
aF0.05550651070403884
aF0.05561686161995145
aF0.05594791436768925
aF0.05638931803133966
aF0.056610019863164864
aF0.057051423526815276
aF0.05727212535864048
aF0.05749282719046568
aF0.057713529022290884
aF0.05804458177002869
aF0.058706687265504306
aF0.058817038181416904
aF0.05903774001324211
aF0.05914809092915471
aF0.05925844184506732
aF0.06003089825645553
aF0.06036195100419334
aF0.060472301920105935
aF0.06069300375193114
aF0.06124475833149415
aF0.061575811079231955
aF0.06168616199514456
aF0.061796512911057165
aF0.06278967115427057
aF0.06301037298609578
aF0.06345177664974619
aF0.0635621275656588
aF0.06389318031339661
aF0.0640035312293092
aF0.06444493489295962
aF0.06466563672478481
aF0.06499668947252263
aF0.06521739130434782
aF0.06543809313617303
aF0.06587949679982344
aF0.06643125137938645
aF0.06687265504303685
aF0.06698300595894946
aF0.06742440962259987
aF0.06775546237033768
aF0.06808651511807548
aF0.06830721694990069
aF0.06841756786581328
aF0.0687486206135511
aF0.06896932244537629
aF0.06941072610902671
aF0.06996248068858972
aF0.07018318252041492
aF0.07040388435224013
aF0.07062458618406532
aF0.07073493709997793
aF0.07095563893180314
aF0.07117634076362833
aF0.07150739351136615
aF0.07161774442727875
aF0.07172809534319134
aF0.07194879717501655
aF0.07216949900684176
aF0.07272125358640477
aF0.07283160450231736
aF0.07338335908188037
aF0.07360406091370558
aF0.07382476274553079
aF0.07404546457735599
aF0.074597219156919
aF0.07492827190465681
aF0.07514897373648201
aF0.07559037740013243
aF0.07592143014787023
aF0.07647318472743324
aF0.07691458839108364
aF0.07691458839108364
aF0.07713529022290885
aF0.07768704480247186
aF0.07812844846612227
aF0.07834915029794748
aF0.07845950121386007
aF0.07890090487751049
aF0.07901125579342308
aF0.0794526594570735
aF0.0801147649525491
aF0.08055616861619952
aF0.08088722136393732
aF0.08143897594350033
aF0.08199073052306334
aF0.08221143235488855
aF0.08232178327080114
aF0.08243213418671375
aF0.08243213418671375
aF0.08265283601853896
aF0.08331494151401457
aF0.08397704700949019
aF0.08474950342087839
aF0.08474950342087839
aF0.0851909070845288
aF0.08552195983226661
aF0.08585301258000441
aF0.08618406532774223
aF0.08640476715956742
aF0.08673581990730524
aF0.08761862723460605
aF0.08817038181416906
aF0.08861178547781946
aF0.08960494372103288
aF0.08982564555285809
aF0.08982564555285809
aF0.0903774001324211
aF0.0908188037960715
aF0.09103950562789671
aF0.09159126020745972
aF0.09225336570293534
aF0.09280512028249835
aF0.09313617303023615
aF0.09357757669388655
aF0.09368792760979916
aF0.09401898035753697
aF0.09435003310527477
aF0.09446038402118738
aF0.09501213860075039
aF0.09523284043257559
aF0.0955638931803134
aF0.09622599867578902
aF0.0963363495917016
aF0.09666740233943942
aF0.09721915691900243
aF0.09788126241447805
aF0.09843301699404106
aF0.09876406974177886
aF0.09898477157360407
aF0.09898477157360407
aF0.09931582432134187
aF0.09975722798499227
aF0.09997792981681748
aF0.1006400353122931
aF0.10119178989185611
aF0.1014124917236813
aF0.10240564996689472
aF0.10262635179871993
aF0.10273670271463253
aF0.10317810637828294
aF0.10350915912602075
aF0.10372986095784595
aF0.10428161553740896
aF0.10439196645332156
aF0.10527477378062237
aF0.10560582652836019
aF0.1057161774442728
aF0.1060472301920106
aF0.1061575811079232
aF0.10670933568748621
aF0.10726109026704922
aF0.10781284484661223
aF0.10836459942617524
aF0.10858530125800044
aF0.10880600308982565
aF0.10913705583756345
aF0.10968881041712646
aF0.11024056499668947
aF0.11079231957625248
aF0.11145442507172809
aF0.1117854778194659
aF0.1118958287353785
aF0.11288898697859193
aF0.11310968881041712
aF0.11344074155815494
aF0.11355109247406754
aF0.11366144338998013
aF0.11421319796954314
aF0.11476495254910615
aF0.11542705804458177
aF0.11619951445596999
aF0.1169719708673582
aF0.1171926726991834
aF0.11829618185830942
aF0.11862723460604722
aF0.11917898918561023
aF0.11951004193334805
aF0.12006179651291106
aF0.12017214742882366
aF0.12050320017656146
aF0.12061355109247407
aF0.12116530567203708
aF0.12171706025160009
aF0.1222688148311631
aF0.1227102184948135
aF0.12293092032663872
aF0.12337232399028912
aF0.12359302582211433
aF0.12392407856985213
aF0.12403442948576474
aF0.12447583314941514
aF0.12491723681306555
aF0.12491723681306555
aF0.12513793864489076
aF0.12535864047671597
aF0.12557934230854115
aF0.12602074597219157
aF0.12624144780401678
aF0.1271242551313176
aF0.1272346060472302
aF0.127565658794968
aF0.128117413374531
aF0.12866916795409403
aF0.12933127344956963
aF0.12999337894504526
aF0.12999337894504526
aF0.13065548444052086
aF0.13109688810417128
aF0.13142794085190906
aF0.13175899359964688
aF0.1326418009269477
aF0.1327521518428603
aF0.1336349591701611
aF0.13473846832928713
aF0.13529022290885015
aF0.13551092474067536
aF0.13551092474067536
aF0.13639373206797617
aF0.13694548664753917
aF0.13738689031118959
aF0.1382696976384904
aF0.13871110130214082
aF0.1390421540498786
aF0.14003531229309205
aF0.14014566320900462
aF0.14058706687265504
aF0.14102847053630546
aF0.14191127786360627
aF0.1422423306113441
aF0.14268373427499448
aF0.1433458397704701
aF0.1441182961818583
aF0.1445596998455087
aF0.1445596998455087
aF0.14511145442507173
aF0.14566320900463472
aF0.14599426175237254
aF0.14676671816376075
aF0.14709777091149856
aF0.14820128007062458
aF0.1487530346501876
aF0.149194438313838
aF0.14985654380931362
aF0.15051864930478923
aF0.15073935113661444
aF0.15129110571617743
aF0.15151180754800264
aF0.15217391304347827
aF0.15261531670712866
aF0.15305672037077908
aF0.15360847495034208
aF0.1540498786139925
aF0.15449128227764292
aF0.1550430368572059
aF0.15559479143676894
aF0.15581549326859412
aF0.15614654601633193
aF0.15658794967998235
aF0.15725005517545795
aF0.15758110792319577
aF0.15824321341867137
aF0.1586846170823218
aF0.15945707349371
aF0.1602295299050982
aF0.16056058265283601
aF0.16078128448466122
aF0.16111233723239904
aF0.16122268814831164
aF0.16210549547561245
aF0.16276760097108806
aF0.16287795188700066
aF0.16298830280291327
aF0.16320900463473847
aF0.16365040829838887
aF0.16464356654160228
aF0.1648642683734275
aF0.1650849702052527
aF0.1659677775325535
aF0.16629883028029133
aF0.16674023394394175
aF0.16751269035532995
aF0.16773339218715516
aF0.16828514676671816
aF0.16883690134628118
aF0.1699404105054072
aF0.1701611123372324
aF0.17093356874862062
aF0.171374972412271
aF0.17181637607592143
aF0.17247848157139703
aF0.17291988523504745
aF0.17347163981461047
aF0.17391304347826086
aF0.17468549988964907
aF0.1751269035532995
aF0.17567865813286251
aF0.1761200617965129
aF0.17689251820790114
aF0.17733392187155153
aF0.17766497461928935
aF0.17799602736702716
aF0.17887883469432797
aF0.17943058927389097
aF0.179982343853454
aF0.18042374751710438
aF0.1809755020966674
aF0.18196866033988082
aF0.18263076583535642
aF0.18296181858309424
aF0.18318252041491945
aF0.18395497682630765
aF0.18439638048995807
aF0.18516883690134628
aF0.1857205914809093
aF0.18693445155594793
aF0.18770690796733613
aF0.18836901346281174
aF0.18914146987419997
aF0.18958287353785036
aF0.190244979033326
aF0.1910174354447142
aF0.1911277863606268
aF0.1917898918561024
aF0.19234164643566543
aF0.19278305009931582
aF0.19355550651070405
aF0.19432796292209226
aF0.19465901566983007
aF0.19510041933348046
aF0.19543147208121828
aF0.19598322666078127
aF0.1968660339880821
aF0.1974177885676451
aF0.19785919223129553
aF0.19841094681085852
aF0.19896270139042155
aF0.19929375413815933
aF0.19929375413815933
aF0.19995585963363496
aF0.20050761421319796
aF0.20072831604502317
aF0.2013904215404988
aF0.2022732288677996
aF0.2028249834473626
aF0.20326638711101302
aF0.20448024718605165
aF0.20525270359743986
aF0.20591480909291549
aF0.20635621275656588
aF0.2067976164202163
aF0.2076804237475171
aF0.20801147649525492
aF0.20867358199073052
aF0.20911498565438094
aF0.21032884572941957
aF0.21088060030898256
aF0.21132200397263298
aF0.2122048112999338
aF0.2131979695431472
aF0.21408077687044802
aF0.21452218053409844
aF0.21551533877731185
aF0.21573604060913706
aF0.21606709335687485
aF0.21617744427278746
aF0.2169499006841757
aF0.21728095343191348
aF0.2177223570955639
aF0.2178327080114765
aF0.2186051644228647
aF0.21926726991834034
aF0.21970867358199073
aF0.22048112999337893
aF0.22092253365702935
aF0.22114323548885456
aF0.22180534098433016
aF0.22268814831163097
aF0.2235709556389318
aF0.2241227102184948
aF0.22445376296623262
aF0.22544692120944604
aF0.22566762304127125
aF0.22632972853674685
aF0.22688148311630987
aF0.2278746413595233
aF0.22842639593908629
aF0.2286470977709115
aF0.2289781505186493
aF0.2296402560141249
aF0.22997130876186272
aF0.23041271242551314
aF0.23118516883690135
aF0.23261973074376519
aF0.23295078349150297
aF0.23317148532332818
aF0.2337232399028912
aF0.2342749944824542
aF0.2349370999779298
aF0.23593025822114325
aF0.23670271463253145
aF0.23714411829618187
aF0.2381372765393953
aF0.2389097329507835
aF0.2392407856985213
aF0.2399028911939969
aF0.24045464577355993
aF0.24111675126903553
aF0.24122710218494814
aF0.24199955859633634
aF0.24255131317589937
aF0.24343412050320018
aF0.244316927830501
aF0.24486868241006401
aF0.2453100860737144
aF0.24575148973736483
aF0.24630324431692782
aF0.24685499889649085
aF0.24740675347605384
aF0.24773780622379166
aF0.24884131538291768
aF0.2492827190465681
aF0.2493930699624807
aF0.2500551754579563
aF0.2504965791216067
aF0.2506069300375193
aF0.2511586846170823
aF0.2514897373648201
aF0.25237254469212095
aF0.25259324652394616
aF0.2530346501875966
aF0.25347605385124694
aF0.25413815934672257
aF0.2549106157581108
aF0.255683072169499
aF0.2561244758331494
aF0.2566762304127124
aF0.25733833590818805
aF0.2580004414036636
aF0.25855219598322665
aF0.2595453542264401
aF0.2598764069741779
aF0.2606488633855661
aF0.26175237254469214
aF0.2626351798719929
aF0.26329728536746855
aF0.26373868903111897
aF0.2640697417788568
aF0.26506290002207017
aF0.2660560582652836
aF0.26649746192893403
aF0.2668285146766718
aF0.2671595674244096
aF0.2671595674244096
aF0.2673802692562348
aF0.26771132200397263
aF0.26782167291988523
aF0.26837342749944826
aF0.26936658574266165
aF0.26958728757448686
aF0.2701390421540499
aF0.2704700949017877
aF0.2706907967336129
aF0.2713529022290885
aF0.2721253586404767
aF0.27256676230412713
aF0.27278746413595234
aF0.2736702714632531
aF0.27422202604281615
aF0.2752151842860296
aF0.27587728978150516
aF0.2766497461928934
aF0.277311851688369
aF0.27786360626793205
aF0.2783050099315824
aF0.27885676451114544
aF0.27918781725888325
aF0.2798499227543589
aF0.28018097550209664
aF0.2811741337453101
aF0.2818362392407857
aF0.2826086956521739
aF0.2828293974839991
aF0.2832708011476495
aF0.28426395939086296
aF0.2847053630545133
aF0.285919223129552
aF0.2868020304568528
aF0.288126241447804
aF0.28867799602736705
aF0.28956080335466783
aF0.29011255793423085
aF0.2907746634297065
aF0.29154711984109466
aF0.2920988744206577
aF0.2925402780843081
aF0.2930920326638711
aF0.2935334363275215
aF0.29441624365482233
aF0.29463694548664754
aF0.29507834915029796
aF0.2955197528139484
aF0.29629220922533656
aF0.29651291105716177
aF0.2970646656367248
aF0.2976164202162878
aF0.2982785257117634
aF0.2991613330390642
aF0.29982343853453985
aF0.30015449128227767
aF0.30081659677775324
aF0.30092694769366585
aF0.30125800044140366
aF0.3021408077687045
aF0.3029132641800927
aF0.3033546678437431
aF0.3039064224233061
aF0.30434782608695654
aF0.3048995806665195
aF0.3052306334142573
aF0.30567203707790774
aF0.30589273890973295
aF0.3065548444052086
aF0.30710659898477155
aF0.308099757227985
aF0.3087618627234606
aF0.309203266387111
aF0.3094239682189362
aF0.3098653718825866
aF0.31074817920988745
aF0.31107923195762527
aF0.31207239020083866
aF0.3127344956963143
aF0.3132862502758773
aF0.3137276539395277
aF0.3141690576031781
aF0.3149415140145663
aF0.31560361951004196
aF0.31626572500551753
aF0.31692783050099316
aF0.317810637828294
aF0.31825204149194436
aF0.3186934451555948
aF0.31990730523063343
aF0.32023835797837125
aF0.320569410726109
aF0.32134186713749724
aF0.32200397263297287
aF0.32266607812844844
aF0.3234385345398367
aF0.3244316927830501
aF0.3253145001103509
aF0.32619730743765174
aF0.32719046568086513
aF0.32774222026042815
aF0.3284043257559038
aF0.3288457294195542
aF0.32939748399911717
aF0.3300595894945928
aF0.33116309865371885
aF0.3318252041491944
aF0.33248730964467005
aF0.33292871330832047
aF0.3335908188037961
aF0.33392187155153386
aF0.3348046788788347
aF0.3351357316265725
aF0.33590818803796074
aF0.3362392407856985
aF0.3366806444493489
aF0.33734274994482455
aF0.3378945045243876
aF0.33822555727212533
aF0.33899801368351357
aF0.3396601191789892
aF0.3403222246744648
aF0.3409843301699404
aF0.34197748841315384
aF0.3426395939086294
aF0.34297064665636723
aF0.34341205032001765
aF0.34385345398366807
aF0.3442948576473185
aF0.3447362613109689
aF0.3452880158905319
aF0.3460604723019201
aF0.34661222688148313
aF0.34793643787243433
aF0.34793643787243433
aF0.34815713970425954
aF0.34870889428382257
aF0.34937099977929814
aF0.35003310527477377
aF0.3503641580225116
aF0.3505848598543368
aF0.3511366144338998
aF0.3516883690134628
aF0.3523504745089384
aF0.35290222908850144
aF0.35400573824762743
aF0.35466784374310306
aF0.3555506510704039
aF0.3563231074817921
aF0.3570955638931803
aF0.35764731847274334
aF0.3584197748841315
aF0.35886117854778193
aF0.35941293312734496
aF0.3602957404546458
aF0.36051644228647095
aF0.36073714411829616
aF0.361068196866034
aF0.3618406532774222
aF0.362723460604723
aF0.3630545133524608
aF0.36393732067976164
aF0.36426837342749946
aF0.36504082983888764
aF0.36570293533436327
aF0.3662546899139263
aF0.3665857426616641
aF0.3669167954094019
aF0.3674685499889649
aF0.3682410064003531
aF0.36879276097991615
aF0.3694548664753917
aF0.37033767380269256
aF0.37166188479364376
aF0.3725446921209446
aF0.37331714853233283
aF0.37353785036415804
aF0.374089604943721
aF0.37464135952328403
aF0.37530346501875966
aF0.3759655705142353
aF0.3771794305892739
aF0.3775104833370117
aF0.37817258883248733
aF0.3785036415802251
aF0.37960715073935114
aF0.38015890531891416
aF0.38060030898256453
aF0.38148311630986537
aF0.3818141690576032
aF0.3823659236371662
aF0.3825866254689914
aF0.3831383800485544
aF0.38380048554403
aF0.38424188920768043
aF0.3851246965349812
aF0.38556610019863163
aF0.38589715294636945
aF0.3864489075259325
aF0.3871110130214081
aF0.3879938203487089
aF0.3884352240123593
aF0.3888766276760097
aF0.3897594350033105
aF0.39031118958287353
aF0.39097329507834916
aF0.3915250496579122
aF0.39218715515338776
aF0.3927389097329508
aF0.3931803133966012
aF0.3937320679761642
aF0.394063120723902
aF0.394614875303465
aF0.3950562789671154
aF0.39593908629441626
aF0.39638048995806663
aF0.39682189362171705
aF0.3974839991171927
aF0.3981461046126683
aF0.3989185610240565
aF0.3996910174354447
aF0.40013242109909514
aF0.40046347384683295
aF0.4011255793423085
aF0.40156698300595894
aF0.4024497903332598
aF0.40311189582873536
aF0.40344294857647317
aF0.4036636504082984
aF0.4041050540719488
aF0.40487751048333703
aF0.4056499668947252
aF0.40620172147428824
aF0.40697417788567647
aF0.4071948797175017
aF0.40796733612888986
aF0.4085190907084529
aF0.4090708452880159
aF0.4094018980357537
aF0.4105054071948797
aF0.41127786360626795
aF0.4120503200176561
aF0.41282277642904436
aF0.4131538291767822
aF0.4135952328404326
aF0.41436768925182077
aF0.4150297947472964
aF0.41591260207459724
aF0.416795409401898
aF0.41745751489737365
aF0.41778856764511146
aF0.4184506731405871
aF0.41889207680423746
aF0.41922312955197527
aF0.4201059368792761
aF0.42054734054292653
aF0.4207680423747517
aF0.4217612006179651
aF0.42242330611344076
aF0.42319576252482893
aF0.42374751710439196
aF0.42407856985212977
aF0.4246303244316928
aF0.4251820790112558
aF0.425954535422644
aF0.4262855881703818
aF0.42694769366585744
aF0.4277201500772456
aF0.42860295740454646
aF0.4291547119841095
aF0.42992716839549766
aF0.4304789229750607
aF0.4311410284705363
aF0.43180313396601194
aF0.4325755903774001
aF0.43345839770470096
aF0.4338998013683514
aF0.43423085411608914
aF0.43478260869565216
aF0.4354447141911278
aF0.4355550651070404
aF0.4361068196866034
aF0.4365482233502538
aF0.4372103288457294
aF0.437320679761642
aF0.43776208342529244
aF0.43820348708894286
aF0.43853453983668067
aF0.43886559258441843
aF0.43952769807989406
aF0.4405208563231075
aF0.4411829618185831
aF0.4420657691458839
aF0.44294857647318475
aF0.44405208563231074
aF0.44449348929596116
aF0.4451555947914368
aF0.44581770028691237
aF0.446479805782388
aF0.4468108585301258
aF0.447583314941514
aF0.4482454204369896
aF0.44890752593246525
aF0.44934892959611566
aF0.44990068417567863
aF0.45012138600750384
aF0.45034208783932905
aF0.4508938424188921
aF0.4514455969984551
aF0.4521077024939307
aF0.4523284043257559
aF0.4526594570734937
aF0.4531008607371441
aF0.45376296623261975
aF0.45398366806444496
aF0.4545354226440079
aF0.45486647539174574
aF0.4557492827190466
aF0.456190686382697
aF0.45663209004634736
aF0.457294195541823
aF0.4579563010372986
aF0.45861840653277425
aF0.45983226660781285
aF0.46027367027146326
aF0.4604943721032885
aF0.46115647759876405
aF0.46170823217832707
aF0.4620392849260649
aF0.46303244316927833
aF0.4633634959170161
aF0.46435665416022953
aF0.46512911057161777
aF0.46601191789891855
aF0.46634297064665636
aF0.467005076142132
aF0.467556830721695
aF0.4678878834694328
aF0.468660339880821
aF0.46921209446038403
aF0.46965349812403445
aF0.47053630545133523
aF0.47130876186272347
aF0.47230192010593686
aF0.4729640256014125
aF0.4731847274332377
aF0.4737364820128007
aF0.47406753476053853
aF0.4746192893401015
aF0.4748399911719267
aF0.47528139483557713
aF0.47583314941514016
aF0.47594350033105276
aF0.47671595674244094
aF0.47737806223791657
aF0.4779298168174796
aF0.4784815713970426
aF0.4793643787243434
aF0.48035753696755684
aF0.4812403442948576
aF0.48201280070624586
aF0.4826749062017215
aF0.4828956080335467
aF0.48355771352902227
aF0.4844405208563231
aF0.4845508717722357
aF0.48510262635179874
aF0.4856543809313617
aF0.48653718825866255
aF0.4873096446700508
aF0.487530346501876
aF0.48786139924961375
aF0.48830280291326417
aF0.4889649084087398
aF0.4892959611564776
aF0.4896270139042154
aF0.490289119399691
aF0.4906201721474288
aF0.49106157581107923
aF0.49194438313838007
aF0.49249613771794304
aF0.4934892959611565
aF0.4941514014566321
aF0.4947031560361951
aF0.4953652615316707
aF0.49624806885897155
aF0.4966894725226219
aF0.49768263076583535
aF0.4982343853453984
aF0.49900684175678656
aF0.4997792981681748
aF0.5
aF0.500551754579563
aF0.5015449128227765
aF0.5024277201500772
aF0.5032001765614654
aF0.5038622820569411
aF0.5043036857205915
aF0.5050761421319797
aF0.5060693003751932
aF0.5068417567865813
aF0.5072831604502317
aF0.5080556168616199
aF0.508607371441183
aF0.5088280732730082
aF0.509710880600309
aF0.5101522842639594
aF0.5109247406753477
aF0.511366144338998
aF0.5116971970867358
aF0.5125800044140366
aF0.5129110571617744
aF0.5133524608254249
aF0.5139042154049879
aF0.5143456190686383
aF0.5147870227322887
aF0.5150077245641139
aF0.5153387773118517
aF0.5163319355550651
aF0.5172147428823659
aF0.5180975502096667
aF0.518318252041492
aF0.5189803575369676
aF0.5195321121165306
aF0.5200838666960936
aF0.5207459721915692
aF0.5211873758552196
aF0.5217391304347826
aF0.5220701831825204
aF0.522732288677996
aF0.5233943941734717
aF0.5238357978371221
aF0.5246082542485102
aF0.525491061575811
aF0.5259324652394615
aF0.5261531670712867
aF0.5271463253145001
aF0.5274773780622379
aF0.5283601853895388
aF0.5290222908850143
aF0.5294636945486647
aF0.5297947472964025
aF0.5302361509600529
aF0.5308982564555286
aF0.5316707128669168
aF0.5321121165305672
aF0.5328845729419555
aF0.5334363275215185
aF0.5338777311851688
aF0.534650187596557
aF0.5355329949238579
aF0.5361951004193335
aF0.5369675568307217
aF0.53774001324211
aF0.5380710659898477
aF0.5390642242330611
aF0.5395056278967115
aF0.5401677333921872
aF0.5412712425513132
aF0.5414919443831384
aF0.5419333480467888
aF0.5428161553740896
aF0.54325755903774
aF0.5441403663650408
aF0.5451335246082543
aF0.5457956301037299
aF0.5466784374310307
aF0.5472301920105936
aF0.5477819465901567
aF0.5484440520856323
aF0.5486647539174575
aF0.5487751048333701
aF0.5493268594129331
aF0.5497682630765836
aF0.550761421319797
aF0.5510924740675348
aF0.5519752813948355
aF0.5528580887221364
aF0.5539615978812624
aF0.5544030015449128
aF0.5548444052085633
aF0.5561686161995144
aF0.5566100198631648
aF0.55683072169499
aF0.5574928271904657
aF0.5578238799382035
aF0.5579342308541161
aF0.5585963363495917
aF0.55936879276098
aF0.5595894945928052
aF0.5601412491723682
aF0.5608033546678437
aF0.5611344074155815
aF0.5615758110792319
aF0.562679320238358
aF0.563231074817921
aF0.5636724784815714
aF0.5641138821452218
aF0.5645552858088723
aF0.56488633855661
aF0.565989847715736
aF0.5662105495475612
aF0.5664312513793864
aF0.5667623041271243
aF0.5676451114544251
aF0.5679761642021629
aF0.5683072169499007
aF0.5686382696976385
aF0.569300375193114
aF0.5702935334363275
aF0.5709556389318031
aF0.5716177444272788
aF0.5720591480909292
aF0.572390200838667
aF0.5730523063341426
aF0.573493709997793
aF0.5741558154932686
aF0.5749282719046568
aF0.5752593246523946
aF0.5759214301478702
aF0.5763628338115206
aF0.5768042374751711
aF0.5774663429706467
aF0.5781284484661222
aF0.5789009048775104
aF0.5798940631207239
aF0.5806665195321121
aF0.5812182741116751
aF0.581549326859413
aF0.582101081438976
aF0.5826528360185389
aF0.5829838887662767
aF0.5833149415140145
aF0.5836459942617523
aF0.5839770470094902
aF0.584308099757228
aF0.5851909070845288
aF0.5855219598322666
aF0.585963363495917
aF0.5864047671595675
aF0.5869565217391305
aF0.5879496799823438
aF0.5885014345619068
aF0.5897152946369455
aF0.5904877510483337
aF0.5915912602074597
aF0.5918119620392849
aF0.5919223129551975
aF0.5922533657029353
aF0.5924740675347605
aF0.5929154711984109
aF0.5929154711984109
aF0.5939086294416244
aF0.595122489516663
aF0.5955638931803134
aF0.596777753255352
aF0.5972191569190024
aF0.597329507834915
aF0.5979916133303906
aF0.5986537188258663
aF0.5992054734054293
aF0.6001986316486427
aF0.6007503862282056
aF0.6010814389759435
aF0.6011917898918561
aF0.6011917898918561
aF0.6015228426395939
aF0.6024056499668947
aF0.6025160008828073
aF0.603178106378283
aF0.6036195100419334
aF0.6039505627896712
aF0.6041712646214964
aF0.6047230192010594
aF0.6052747737806223
aF0.605936879276098
aF0.606488633855661
aF0.6071507393511366
aF0.6074817920988744
aF0.6081438975943501
aF0.6084749503420879
aF0.6089163540057383
aF0.6092474067534761
aF0.6094681085853012
aF0.6102405649966894
aF0.6107923195762525
aF0.6110130214080777
aF0.6116751269035533
aF0.6122268814831163
aF0.612888986978592
aF0.6137717943058928
aF0.6144338998013683
aF0.6148753034650187
aF0.6154270580445818
aF0.6159788126241448
aF0.6163098653718826
aF0.6168616199514456
aF0.617303023615096
aF0.6174133745310086
aF0.6181858309423969
aF0.6191789891856102
aF0.6197307437651732
aF0.6201721474288237
aF0.6208342529242993
aF0.6212756565879497
aF0.6219377620834253
aF0.6224895166629884
aF0.622820569410726
aF0.6235930258221143
aF0.6240344294857647
aF0.6245861840653277
aF0.6252482895608034
aF0.6255793423085412
aF0.626462149635842
aF0.6267932023835798
aF0.6269035532994924
aF0.6274553078790553
aF0.6282277642904436
aF0.6284484661222688
aF0.6287795188700066
aF0.6291105716177444
aF0.6301037298609579
aF0.6301037298609579
aF0.6309865371882587
aF0.6313175899359965
aF0.6320900463473846
aF0.6328625027587729
aF0.6331935555065107
aF0.6333039064224233
aF0.6339660119178989
aF0.6341867137497241
aF0.6348488192451998
aF0.6354005738247628
aF0.6355109247406754
aF0.6362833811520635
aF0.6367247848157139
aF0.637276539395277
aF0.6380489958066652
aF0.6384903994703156
aF0.6391525049657912
aF0.6395939086294417
aF0.6398146104612669
aF0.6408077687044802
aF0.641138821452218
aF0.641690576031781
aF0.6421319796954315
aF0.6425733833590819
aF0.6430147870227323
aF0.6433458397704701
aF0.644228647097771
aF0.6445596998455088
aF0.6448907525932466
aF0.6452218053409843
aF0.6455528580887221
aF0.6459942617523725
aF0.6465460163319355
aF0.6468770690796734
aF0.6473184727433238
aF0.6478702273228868
aF0.6484219819024498
aF0.6489737364820128
aF0.6495254910615759
aF0.6500772456411388
aF0.6507393511366144
aF0.6515118075480026
aF0.6518428602957405
aF0.6523946148753035
aF0.6533877731185169
aF0.654160229529905
aF0.6543809313617303
aF0.6549326859412933
aF0.6551533877731185
aF0.6557051423526815
aF0.6565879496799824
aF0.6570293533436328
aF0.657250055175458
aF0.6574707570072832
aF0.658353564334584
aF0.6587949679982343
aF0.6592363716618848
aF0.6596777753255352
aF0.6597881262414478
aF0.660008828073273
aF0.6607812844846612
aF0.6613330390642242
aF0.6619951445596999
aF0.6626572500551755
aF0.6632090046347384
aF0.6632090046347384
aF0.663319355550651
aF0.663871110130214
aF0.6643125137938645
aF0.6645332156256897
aF0.6650849702052527
aF0.6656367247848157
aF0.6658574266166409
aF0.6666298830280292
aF0.6668505848598544
aF0.6671816376075922
aF0.6674023394394174
aF0.6678437431030677
aF0.6681747958508055
aF0.6690576031781064
aF0.669719708673582
aF0.6699404105054072
aF0.6703818141690576
aF0.6707128669167954
aF0.6710439196645333
aF0.6718163760759215
aF0.6723681306554844
aF0.6728095343191348
aF0.6733612888986978
aF0.673581990730523
aF0.6741337453100861
aF0.6745751489737365
aF0.6749062017214743
aF0.6750165526373869
aF0.6754579563010373
aF0.6765614654601633
aF0.6768925182079011
aF0.6773339218715515
aF0.6775546237033767
aF0.6778856764511145
aF0.6785477819465902
aF0.6789891856102406
aF0.6795409401898036
aF0.6800926947693666
aF0.6806444493489296
aF0.6808651511807547
aF0.6814169057603178
aF0.6824100640035312
aF0.6828514676671816
aF0.6834032222467447
aF0.6835135731626573
aF0.6841756786581329
aF0.6842860295740455
aF0.6847274332376959
aF0.6856102405649966
aF0.6859412933127345
aF0.6860516442286471
aF0.6866033988082101
aF0.6870448024718605
aF0.6874862061355109
aF0.6878172588832487
aF0.6881483116309866
aF0.6884793643787244
aF0.6888104171264622
aF0.6892518207901126
aF0.6898035753696755
aF0.6905760317810637
aF0.6910174354447142
aF0.6915691900242772
aF0.691900242772015
aF0.692451997351578
aF0.693003751931141
aF0.6936658574266167
aF0.6941072610902671
aF0.6943279629220922
aF0.6948797175016552
aF0.6954314720812182
aF0.6960935775766939
aF0.6967556830721695
aF0.6971970867358199
aF0.6976384903994703
aF0.6986316486426838
aF0.6991834032222467
aF0.6997351578018097
aF0.7002869123813728
aF0.7007283160450232
aF0.701059368792761
aF0.7013904215404988
aF0.7026042816155375
aF0.7028249834473627
aF0.703266387111013
aF0.703818141690576
aF0.704369896270139
aF0.7045905981019642
aF0.704921650849702
aF0.7054734054292651
aF0.7062458618406533
aF0.7069079673361289
aF0.7072390200838667
aF0.707680423747517
aF0.7080114764952549
aF0.7087839329066431
aF0.7092253365702935
aF0.7097770911498565
aF0.7099977929816818
aF0.7106598984771574
aF0.7109909512248952
aF0.7117634076362834
aF0.7120944603840211
aF0.7126462149635842
aF0.7130876186272346
aF0.713529022290885
aF0.7141911277863606
aF0.7144118296181858
aF0.7148532332818363
aF0.7150739351136615
aF0.7155153387773119
aF0.7157360406091371
aF0.7162877951887001
aF0.7167291988523504
aF0.7169499006841756
aF0.7172809534319134
aF0.7176120061796513
aF0.7178327080114765
aF0.7184948135069521
aF0.7189362171706025
aF0.7194879717501655
aF0.7198190244979034
aF0.7207018318252042
aF0.7212535864047671
aF0.7215846391525049
aF0.7224674464798058
aF0.7231295519752814
aF0.7236813065548444
aF0.723791657470757
aF0.7240123593025822
aF0.7242330611344074
aF0.7251158684617083
aF0.7255572721253586
aF0.7261090267049216
aF0.726550430368572
aF0.7267711322003972
aF0.7268814831163098
aF0.7273228867799603
aF0.7276539395276981
aF0.7284263959390863
aF0.7289781505186493
aF0.7291988523504745
aF0.7298609578459502
aF0.7299713087618627
aF0.7304127124255131
aF0.7306334142573383
aF0.7308541160891635
aF0.7312955197528139
aF0.7315162215846391
aF0.7317369234164643
aF0.7320679761642022
aF0.7322886779960274
aF0.732950783491503
aF0.7337232399028912
aF0.7342749944824543
aF0.7344956963142794
aF0.7349370999779298
aF0.7350474508938424
aF0.7354888545574928
aF0.7355992054734054
aF0.7359302582211432
aF0.7368130655484441
aF0.7370337673802693
aF0.7376958728757449
aF0.7384683292871331
aF0.7385786802030457
aF0.7386890311189583
aF0.739020083866696
aF0.7393511366144339
aF0.7397925402780843
aF0.7400132421099095
aF0.7404546457735599
aF0.7410064003531229
aF0.7412271021849481
aF0.742109909512249
aF0.742661664091812
aF0.7429927168395498
aF0.743213418671375
aF0.7442065769145884
aF0.7444272787464136
aF0.7451997351578018
aF0.7455307879055396
aF0.7461928934010152
aF0.7464135952328405
aF0.7468549988964909
aF0.7471860516442287
aF0.7477378062237917
aF0.748179209887442
aF0.7485102626351798
aF0.748730964467005
aF0.7491723681306555
aF0.7497241227102185
aF0.7500551754579563
aF0.7501655263738689
aF0.7501655263738689
aF0.7503862282056941
aF0.7503862282056941
aF0.7507172809534319
aF0.7509379827852571
aF0.7516000882807328
aF0.7517104391966454
aF0.7519311410284706
aF0.7522621937762083
aF0.7523725446921209
aF0.7527035974398587
aF0.7528139483557713
aF0.7531450011035091
aF0.7531450011035091
aF0.7536967556830722
aF0.7541381593467226
aF0.7549106157581108
aF0.7554623703376738
aF0.755683072169499
aF0.7561244758331495
aF0.756786581328625
aF0.7576693886559258
aF0.7581107923195762
aF0.758441845067314
aF0.7586625468991393
aF0.7591039505627897
aF0.7596557051423527
aF0.7599867578900905
aF0.7602074597219157
aF0.7607592143014787
aF0.7613109688810417
aF0.7616420216287795
aF0.7617523725446921
aF0.7619730743765173
aF0.7624144780401677
aF0.7628558817038181
aF0.7634076362833812
aF0.7638490399470316
aF0.7644007945265946
aF0.764842198190245
aF0.7650629000220702
aF0.7656146546016332
aF0.7657250055175457
aF0.765945707349371
aF0.7662767600971088
aF0.766497461928934
aF0.7666078128448466
aF0.7669388655925844
aF0.7673802692562348
aF0.76760097108806
aF0.7677113220039726
aF0.7679320238357978
aF0.7680423747517104
aF0.7682630765835357
aF0.7683734274994483
aF0.7691458839108365
aF0.7694769366585743
aF0.7698079894063121
aF0.7701390421540498
aF0.7705804458177002
aF0.7709114985654381
aF0.7713529022290885
aF0.7714632531450011
aF0.7716839549768263
aF0.7720150077245641
aF0.7725667623041271
aF0.772897815051865
aF0.7731185168836902
aF0.7732288677996028
aF0.7733392187155154
aF0.7741116751269036
aF0.7744427278746414
aF0.7746634297064665
aF0.7746634297064665
aF0.7751048333701169
aF0.7753255352019421
aF0.7755462370337673
aF0.7760979916133304
aF0.7765393952769808
aF0.7766497461928934
aF0.7769807989406312
aF0.777311851688369
aF0.7779739571838447
aF0.7779739571838447
aF0.7784153608474951
aF0.7790774663429706
aF0.779518870006621
aF0.7796292209225336
aF0.7799602736702714
aF0.7801809755020966
aF0.7802913264180092
aF0.7808430809975723
aF0.7809534319134849
aF0.7810637828293975
aF0.7813948355771353
aF0.7815051864930479
aF0.7819465901566983
aF0.7827190465680866
aF0.7828293974839992
aF0.7832708011476496
aF0.7836018538953873
aF0.7840432575590377
aF0.7840432575590377
aF0.7842639593908629
aF0.7844846612226881
aF0.7848157139704259
aF0.7855881703818142
aF0.785919223129552
aF0.7861399249613772
aF0.7868020304568528
aF0.787022732288678
aF0.787022732288678
aF0.7874641359523284
aF0.787574486868241
aF0.7879055396159789
aF0.7882365923637166
aF0.7884572941955418
aF0.7888986978591922
aF0.7893401015228426
aF0.7898918561024056
aF0.7898918561024056
aF0.7902229088501435
aF0.7904436106819687
aF0.7904436106819687
aF0.7906643125137939
aF0.7907746634297065
aF0.7909953652615317
aF0.7911057161774443
aF0.7912160670933569
aF0.7915471198410947
aF0.7915471198410947
aF0.7919885235047451
aF0.7922092253365703
aF0.792540278084308
aF0.7926506290002207
aF0.7928713308320459
aF0.7934230854116089
aF0.7937541381593467
aF0.7943058927389097
aF0.7947472964025601
aF0.7948576473184727
aF0.795078349150298
aF0.795078349150298
aF0.795078349150298
aF0.7951887000662106
aF0.7952990509821232
aF0.7955197528139484
aF0.7960715073935114
aF0.796181858309424
aF0.7969543147208121
aF0.7976164202162878
aF0.7979474729640256
aF0.7980578238799382
aF0.798388876627676
aF0.7986095784595012
aF0.7987199293754138
aF0.7992716839549768
aF0.7996027367027146
aF0.8000441403663651
aF0.8003751931141029
aF0.8004855440300155
aF0.8011476495254911
aF0.8012580004414037
aF0.8013683513573162
aF0.8021408077687044
aF0.8023615096005297
aF0.8026925623482675
aF0.8028029132641801
aF0.8029132641800927
aF0.8036857205914809
aF0.8040167733392187
aF0.8044581770028691
aF0.8046788788346944
aF0.80534098433017
aF0.8060030898256455
aF0.8060030898256455
aF0.8066651953211211
aF0.8066651953211211
aF0.8068858971529463
aF0.8073273008165968
aF0.807548002648422
aF0.8078790553961598
aF0.808099757227985
aF0.8084308099757228
aF0.8084308099757228
aF0.8087618627234606
aF0.809203266387111
aF0.8094239682189363
aF0.8096446700507615
aF0.8099757227984993
aF0.8104171264621496
aF0.8106378282939748
aF0.8107481792098874
aF0.8109688810417126
aF0.8111895828735378
aF0.8111895828735378
aF0.811410284705363
aF0.811410284705363
aF0.8115206356212756
aF0.8118516883690134
aF0.8122930920326639
aF0.8122930920326639
aF0.8125137938644891
aF0.8126241447804017
aF0.8126241447804017
aF0.8129551975281395
aF0.8130655484440521
aF0.8132862502758773
aF0.8135069521077025
aF0.8137276539395277
aF0.8140587066872655
aF0.8140587066872655
aF0.8142794085190908
aF0.8147208121827412
aF0.8148311630986537
aF0.8149415140145663
aF0.8149415140145663
aF0.8151622158463915
aF0.8153829176782167
aF0.8153829176782167
aF0.8156036195100419
aF0.8157139704259545
aF0.8160450231736923
aF0.8165967777532553
aF0.816707128669168
aF0.8169278305009932
aF0.8173692341646436
aF0.8175899359964688
aF0.817810637828294
aF0.818362392407857
aF0.8185830942396822
aF0.81891414698742
aF0.8193555506510704
aF0.8195762524828956
aF0.8202383579783712
aF0.8206797616420216
aF0.8207901125579342
aF0.821121165305672
aF0.821121165305672
aF0.8212315162215846
aF0.8214522180534098
aF0.821672919885235
aF0.8221143235488855
aF0.8221143235488855
aF0.8223350253807107
aF0.8225557272125359
aF0.8229971308761863
aF0.8233281836239241
aF0.8234385345398367
aF0.8241006400353122
aF0.8244316927830501
aF0.8248730964467005
aF0.8255352019421761
aF0.8260869565217391
aF0.826418009269477
aF0.826418009269477
aF0.8266387111013022
aF0.8267490620172148
aF0.8273008165967778
aF0.827521518428603
aF0.8279629220922534
aF0.8281836239240785
aF0.8285146766718163
aF0.8286250275877289
aF0.8286250275877289
aF0.8288457294195541
aF0.8292871330832046
aF0.8295078349150298
aF0.8295078349150298
aF0.8296181858309424
aF0.8299492385786802
aF0.8305009931582432
aF0.8307216949900684
aF0.8310527477378062
aF0.8313838004855441
aF0.8318252041491945
aF0.8321562568969323
aF0.8324873096446701
aF0.8325976605605826
aF0.8329287133083204
aF0.8333701169719708
aF0.8333701169719708
aF0.8337011697197086
aF0.8340322224674465
aF0.8342529242992717
aF0.8344736261310969
aF0.8348046788788347
aF0.8350253807106599
aF0.8352460825424851
aF0.8356874862061355
aF0.8357978371220481
aF0.8357978371220481
aF0.8360185389538733
aF0.836128889869786
aF0.8363495917016112
aF0.8367909953652616
aF0.8371220481129993
aF0.8372323990289119
aF0.8378945045243875
aF0.8380048554403001
aF0.8382255572721253
aF0.8386669609357758
aF0.8393290664312514
aF0.8395497682630766
aF0.8397704700949018
aF0.8398808210108144
aF0.8401015228426396
aF0.8401015228426396
aF0.8403222246744648
aF0.84054292650629
aF0.8407636283381152
aF0.8409843301699405
aF0.8412050320017657
aF0.8414257338335909
aF0.8417567865813286
aF0.8418671374972412
aF0.8418671374972412
aF0.8420878393290664
aF0.8423085411608916
aF0.8423085411608916
aF0.8426395939086294
aF0.8430809975722798
aF0.8434120503200176
aF0.8438534539836681
aF0.8438534539836681
aF0.8438534539836681
aF0.8441845067314059
aF0.8444052085632311
aF0.8447362613109689
aF0.8448466122268815
aF0.8449569631427941
aF0.8450673140587067
aF0.8450673140587067
aF0.8453983668064445
aF0.8453983668064445
aF0.8455087177223571
aF0.8459501213860076
aF0.84606047230192
aF0.8462811741337453
aF0.8463915250496579
aF0.8467225777973957
aF0.8468329287133083
aF0.8469432796292209
aF0.8469432796292209
aF0.8470536305451335
aF0.8472743323769587
aF0.8473846832928713
aF0.8478260869565217
aF0.8481571397042595
aF0.8482674906201721
aF0.8484881924519974
aF0.84859854336791
aF0.84859854336791
aF0.8489295961156478
aF0.8493709997792982
aF0.8493709997792982
aF0.8493709997792982
aF0.8495917016111234
aF0.849702052527036
aF0.8498124034429486
aF0.8498124034429486
aF0.8500331052747738
aF0.8500331052747738
aF0.8500331052747738
aF0.8503641580225116
aF0.8509159126020746
aF0.8510262635179872
aF0.8510262635179872
aF0.8511366144338998
aF0.8511366144338998
aF0.8516883690134628
aF0.8521297726771132
aF0.8523504745089384
aF0.8523504745089384
aF0.8526815272566762
aF0.8531229309203266
aF0.8536746854998897
aF0.8537850364158023
aF0.8538953873317149
aF0.8545574928271905
aF0.8548885455749283
aF0.8553299492385786
aF0.8556610019863164
aF0.855771352902229
aF0.8559920547340543
aF0.8562127565658795
aF0.8563231074817921
aF0.8565438093136173
aF0.8568748620613551
aF0.8569852129772677
aF0.8572059148090929
aF0.8576473184727433
aF0.8578680203045685
aF0.8580887221363938
aF0.858309423968219
aF0.8585301258000442
aF0.8591922312955198
aF0.8593025822114324
aF0.8596336349591701
aF0.8597439858750827
aF0.8597439858750827
aF0.8599646877069079
aF0.8599646877069079
aF0.8601853895387331
aF0.8601853895387331
aF0.8604060913705583
aF0.8606267932023836
aF0.8608474950342088
aF0.861068196866034
aF0.861068196866034
aF0.8611785477819466
aF0.8615096005296844
aF0.8615096005296844
aF0.8618406532774222
aF0.8620613551092474
aF0.8623924078569852
aF0.8628338115206357
aF0.8632752151842861
aF0.8636062679320239
aF0.8637166188479365
aF0.8641580225115868
aF0.8644890752593246
aF0.8645994261752372
aF0.8647097770911498
aF0.8650408298388876
aF0.8651511807548002
aF0.8651511807548002
aF0.8654822335025381
aF0.8659236371661885
aF0.8664753917457515
aF0.8666960935775767
aF0.8671374972412271
aF0.8672478481571397
aF0.8673581990730523
aF0.8675789009048775
aF0.8681306554844406
aF0.8683513573162657
aF0.8684617082321783
aF0.8686824100640035
aF0.8691238137276539
aF0.8695652173913043
aF0.8696755683072169
aF0.8698962701390421
aF0.8700066210549547
aF0.87022732288678
aF0.8704480247186052
aF0.8705583756345178
aF0.870779077466343
aF0.8708894283822556
aF0.871330832045906
aF0.8715515338777312
aF0.8716618847936438
aF0.871882586625469
aF0.872434341205032
aF0.8725446921209447
aF0.8725446921209447
aF0.8726550430368573
aF0.8728757448686824
aF0.8734274994482454
aF0.8736482012800706
aF0.8737585521959832
aF0.8737585521959832
aF0.8737585521959832
aF0.8739792540278084
aF0.8744206576914588
aF0.8749724122710218
aF0.8753034650187597
aF0.8758552195983227
aF0.8761862723460605
aF0.8764069741778857
aF0.8767380269256235
aF0.877179430589274
aF0.877400132421099
aF0.8775104833370116
aF0.8777311851688369
aF0.8780622379165747
aF0.8782829397483999
aF0.8787243434120503
aF0.8789450452438755
aF0.8791657470757007
aF0.8792760979916133
aF0.8796071507393511
aF0.8797175016552637
aF0.879938203487089
aF0.879938203487089
aF0.8801589053189142
aF0.880489958066652
aF0.8806003089825646
aF0.8808210108143898
aF0.8811520635621276
aF0.8813727653939528
aF0.8814831163098654
aF0.881593467225778
aF0.8818141690576031
aF0.8820348708894283
aF0.882696976384904
aF0.8829176782167292
aF0.8829176782167292
aF0.8831383800485544
aF0.8833590818803796
aF0.8835797837122048
aF0.88380048554403
aF0.8840211873758552
aF0.8841315382917678
aF0.8842418892076804
aF0.8842418892076804
aF0.8844625910395056
aF0.8850143456190687
aF0.8851246965349813
aF0.8852350474508939
aF0.8854557492827191
aF0.8855661001986317
aF0.8856764511145443
aF0.8856764511145443
aF0.8856764511145443
aF0.8860075038622821
aF0.8861178547781947
aF0.8863385566100198
aF0.8864489075259324
aF0.8866696093577576
aF0.8868903111895828
aF0.8872213639373207
aF0.8872213639373207
aF0.8873317148532333
aF0.8875524166850585
aF0.8877731185168837
aF0.8879938203487089
aF0.8879938203487089
aF0.8879938203487089
aF0.8882145221805341
aF0.8884352240123593
aF0.8886559258441845
aF0.8887662767600971
aF0.8890973295078349
aF0.8892076804237475
aF0.8894283822555727
aF0.8895387331714854
aF0.8898697859192232
aF0.8899801368351358
aF0.890200838666961
aF0.8905318914146988
aF0.8908629441624365
aF0.8909732950783491
aF0.8911939969101743
aF0.8913043478260869
aF0.8916354005738247
aF0.8919664533215625
aF0.8920768042374752
aF0.8921871551533878
aF0.8921871551533878
aF0.8922975060693004
aF0.892407856985213
aF0.8926285588170382
aF0.892959611564776
aF0.8930699624806886
aF0.8931803133966012
aF0.8932906643125138
aF0.8936217170602516
aF0.8938424188920768
aF0.8939527698079894
aF0.894063120723902
aF0.8942838225557272
aF0.8945045243875525
aF0.8946148753034651
aF0.8953873317148532
aF0.8953873317148532
aF0.895718384462591
aF0.8958287353785036
aF0.8959390862944162
aF0.8959390862944162
aF0.8959390862944162
aF0.896270139042154
aF0.8966011917898918
aF0.8966011917898918
aF0.8967115427058044
aF0.896821893621717
aF0.8969322445376297
aF0.8970425954535423
aF0.8972632972853675
aF0.8977047009490179
aF0.8980357536967557
aF0.8981461046126683
aF0.8984771573604061
aF0.8986978591922313
aF0.8988082101081439
aF0.8990289119399691
aF0.8991392628558817
aF0.8991392628558817
aF0.8994703156036196
aF0.8994703156036196
aF0.8994703156036196
aF0.8994703156036196
aF0.8995806665195321
aF0.8996910174354447
aF0.8998013683513573
aF0.9002427720150077
aF0.9003531229309203
aF0.9004634738468329
aF0.9007945265945707
aF0.9009048775104833
aF0.9012359302582211
aF0.9016773339218715
aF0.9017876848377842
aF0.902118737585522
aF0.902118737585522
aF0.9022290885014346
aF0.9025601412491724
aF0.9027808430809976
aF0.9028911939969102
aF0.903222246744648
aF0.9033325976605606
aF0.9035532994923858
aF0.903774001324211
aF0.9041050540719487
aF0.904325755903774
aF0.9046568086515118
aF0.904877510483337
aF0.904877510483337
aF0.9050982123151622
aF0.9052085632310748
aF0.9053189141469874
aF0.9054292650629
aF0.9055396159788126
aF0.9058706687265504
aF0.905981019642463
aF0.9062017214742882
aF0.9062017214742882
aF0.9064224233061134
aF0.9066431251379387
aF0.9067534760538513
aF0.9070845288015891
aF0.9070845288015891
aF0.9073052306334143
aF0.9075259324652395
aF0.9076362833811521
aF0.9077466342970647
aF0.9079673361288899
aF0.9079673361288899
aF0.9079673361288899
aF0.9081880379607151
aF0.9081880379607151
aF0.9085190907084528
aF0.9086294416243654
aF0.9088501434561906
aF0.9088501434561906
aF0.9090708452880158
aF0.9092915471198411
aF0.9094018980357537
aF0.9096225998675789
aF0.9099536526153167
aF0.9101743544471419
aF0.9102847053630545
aF0.9103950562789671
aF0.9106157581107923
aF0.9107261090267049
aF0.9108364599426175
aF0.9109468108585301
aF0.9111675126903553
aF0.911277863606268
aF0.9113882145221806
aF0.9114985654380932
aF0.9114985654380932
aF0.9119399691017436
aF0.9120503200176562
aF0.9120503200176562
aF0.9121606709335688
aF0.9121606709335688
aF0.9121606709335688
aF0.912381372765394
aF0.9127124255131318
aF0.912933127344957
aF0.912933127344957
aF0.9130434782608695
aF0.9131538291767821
aF0.9132641800926947
aF0.9132641800926947
aF0.9132641800926947
aF0.9138159346722577
aF0.9141469874199956
aF0.9141469874199956
aF0.9143676892518208
aF0.9144780401677334
aF0.9144780401677334
aF0.9144780401677334
aF0.9144780401677334
aF0.914588391083646
aF0.914588391083646
aF0.914588391083646
aF0.9146987419995586
aF0.9146987419995586
aF0.9146987419995586
aF0.9149194438313838
aF0.9149194438313838
aF0.9150297947472964
aF0.915140145663209
aF0.9152504965791216
aF0.9155815493268594
aF0.9158022511586846
aF0.9161333039064224
aF0.9161333039064224
aF0.916243654822335
aF0.9163540057382477
aF0.9163540057382477
aF0.9164643566541603
aF0.9165747075700729
aF0.9166850584859855
aF0.9169057603178107
aF0.9170161112337233
aF0.9171264621496359
aF0.9172368130655485
aF0.9173471639814611
aF0.9175678658132862
aF0.9175678658132862
aF0.9176782167291988
aF0.9177885676451114
aF0.917898918561024
aF0.9181196203928492
aF0.9181196203928492
aF0.9181196203928492
aF0.9183403222246744
aF0.9183403222246744
aF0.9183403222246744
aF0.9183403222246744
aF0.9183403222246744
aF0.918450673140587
aF0.9186713749724122
aF0.9187817258883249
aF0.9188920768042375
aF0.9188920768042375
aF0.9191127786360627
aF0.9192231295519753
aF0.9192231295519753
aF0.9195541822997131
aF0.9196645332156257
aF0.9196645332156257
aF0.9196645332156257
aF0.9197748841315383
aF0.9198852350474509
aF0.9198852350474509
aF0.9199955859633635
aF0.9202162877951887
aF0.9205473405429265
aF0.920988744206577
aF0.920988744206577
aF0.9213197969543148
aF0.9214301478702274
aF0.9214301478702274
aF0.92154049878614
aF0.9218715515338778
aF0.9218715515338778
aF0.9220922533657029
aF0.9224233061134407
aF0.9225336570293533
aF0.9226440079452659
aF0.9226440079452659
aF0.9227543588611785
aF0.9228647097770911
aF0.9229750606930037
aF0.9233061134407415
aF0.9235268152725667
aF0.9236371661884794
aF0.9236371661884794
aF0.923747517104392
aF0.9239682189362172
aF0.9239682189362172
aF0.9239682189362172
aF0.9239682189362172
aF0.9239682189362172
aF0.9239682189362172
aF0.9241889207680424
aF0.9245199735157802
aF0.9246303244316928
aF0.9247406753476054
aF0.9249613771794306
aF0.9251820790112558
aF0.9255131317589936
aF0.9255131317589936
aF0.9257338335908188
aF0.9257338335908188
aF0.9257338335908188
aF0.9257338335908188
aF0.925954535422644
aF0.9260648863385567
aF0.9260648863385567
aF0.9262855881703819
aF0.9262855881703819
aF0.9263959390862944
aF0.926506290002207
aF0.926506290002207
aF0.9266166409181196
aF0.9266166409181196
aF0.9267269918340322
aF0.9269476936658574
aF0.9269476936658574
aF0.92705804458177
aF0.9274994482454204
aF0.9274994482454204
aF0.927609799161333
aF0.927609799161333
aF0.927609799161333
aF0.9280512028249834
aF0.9282719046568086
aF0.9284926064886339
aF0.9286029574045465
aF0.9287133083204591
aF0.9288236592363717
aF0.9289340101522843
aF0.9291547119841095
aF0.9294857647318473
aF0.9295961156477599
aF0.9297064665636725
aF0.9298168174795851
aF0.9300375193114103
aF0.9300375193114103
aF0.9300375193114103
aF0.9301478702273229
aF0.9305892738909733
aF0.930699624806886
aF0.9308099757227984
aF0.930920326638711
aF0.9311410284705363
aF0.9312513793864489
aF0.9313617303023615
aF0.9314720812182741
aF0.9316927830500993
aF0.9319134848819245
aF0.9321341867137497
aF0.9322445376296623
aF0.9324652394614875
aF0.9324652394614875
aF0.9326859412933127
aF0.9329066431251379
aF0.9329066431251379
aF0.9329066431251379
aF0.9331273449569631
aF0.9331273449569631
aF0.9331273449569631
aF0.9331273449569631
aF0.9331273449569631
aF0.9333480467887884
aF0.933458397704701
aF0.933458397704701
aF0.9338998013683514
aF0.9341205032001766
aF0.9341205032001766
aF0.9341205032001766
aF0.9343412050320018
aF0.9344515559479144
aF0.9344515559479144
aF0.934561906863827
aF0.934561906863827
aF0.934561906863827
aF0.934561906863827
aF0.934561906863827
aF0.934561906863827
aF0.934561906863827
aF0.9347826086956522
aF0.9347826086956522
aF0.9350033105274774
aF0.9352240123593026
aF0.9353343632752151
aF0.9355550651070403
aF0.9357757669388655
aF0.9358861178547782
aF0.9361068196866034
aF0.936217170602516
aF0.936217170602516
aF0.936217170602516
aF0.936217170602516
aF0.9368792760979916
aF0.9368792760979916
aF0.9369896270139042
aF0.9369896270139042
aF0.9372103288457294
aF0.937320679761642
aF0.937320679761642
aF0.937320679761642
aF0.937320679761642
aF0.9375413815934672
aF0.9375413815934672
aF0.937872434341205
aF0.9380931361730303
aF0.9380931361730303
aF0.9383138380048555
aF0.9384241889207681
aF0.9384241889207681
aF0.9384241889207681
aF0.9384241889207681
aF0.9385345398366807
aF0.9386448907525933
aF0.9388655925844185
aF0.9389759435003311
aF0.9389759435003311
aF0.9389759435003311
aF0.9389759435003311
aF0.9394173471639815
aF0.9396380489958067
aF0.9396380489958067
aF0.9396380489958067
aF0.9397483999117192
aF0.9398587508276318
aF0.9399691017435444
aF0.9401898035753696
aF0.9404105054071948
aF0.9404105054071948
aF0.9404105054071948
aF0.9405208563231074
aF0.94063120723902
aF0.9407415581549327
aF0.9407415581549327
aF0.9409622599867579
aF0.9409622599867579
aF0.9409622599867579
aF0.9409622599867579
aF0.9411829618185831
aF0.9412933127344957
aF0.9415140145663209
aF0.9416243654822335
aF0.9417347163981461
aF0.9420657691458839
aF0.9420657691458839
aF0.9421761200617965
aF0.9421761200617965
aF0.9421761200617965
aF0.9422864709777091
aF0.9423968218936217
aF0.9423968218936217
aF0.9423968218936217
aF0.9425071728095343
aF0.9425071728095343
aF0.9426175237254469
aF0.9426175237254469
aF0.9426175237254469
aF0.9426175237254469
aF0.9427278746413595
aF0.9430589273890974
aF0.9430589273890974
aF0.94316927830501
aF0.9432796292209226
aF0.9432796292209226
aF0.9432796292209226
aF0.9433899801368352
aF0.9435003310527478
aF0.9436106819686604
aF0.9436106819686604
aF0.9439417347163982
aF0.9440520856323108
aF0.9442727874641359
aF0.9443831383800485
aF0.9444934892959611
aF0.9446038402118737
aF0.9448245420436989
aF0.9449348929596115
aF0.9452659457073493
aF0.9452659457073493
aF0.9454866475391746
aF0.9455969984550872
aF0.9460384021187376
aF0.9462591039505628
aF0.946479805782388
aF0.946479805782388
aF0.9465901566983006
aF0.9467005076142132
aF0.9468108585301258
aF0.9468108585301258
aF0.9468108585301258
aF0.9469212094460384
aF0.9471419112778636
aF0.9471419112778636
aF0.9476936658574266
aF0.9476936658574266
aF0.9476936658574266
aF0.9476936658574266
aF0.9478040167733393
aF0.9479143676892519
aF0.9480247186051645
aF0.9481350695210771
aF0.9482454204369897
aF0.9483557713529023
aF0.9485764731847275
aF0.9485764731847275
aF0.94868682410064
aF0.9487971750165526
aF0.9487971750165526
aF0.9489075259324652
aF0.9489075259324652
aF0.9489075259324652
aF0.9490178768483778
aF0.9493489295961156
aF0.9493489295961156
aF0.9494592805120282
aF0.9494592805120282
aF0.9494592805120282
aF0.9495696314279408
aF0.9499006841756786
aF0.9500110350915912
aF0.9501213860075038
aF0.950342087839329
aF0.9504524387552417
aF0.9505627896711543
aF0.9505627896711543
aF0.9507834915029795
aF0.9508938424188921
aF0.9508938424188921
aF0.9510041933348047
aF0.9511145442507173
aF0.9511145442507173
aF0.9512248951666299
aF0.9512248951666299
aF0.9514455969984551
aF0.9514455969984551
aF0.9514455969984551
aF0.9516662988302803
aF0.9516662988302803
aF0.9517766497461929
aF0.9519973515780181
aF0.9519973515780181
aF0.9522180534098433
aF0.9523284043257559
aF0.9524387552416685
aF0.9524387552416685
aF0.9524387552416685
aF0.9525491061575811
aF0.9526594570734938
aF0.9527698079894064
aF0.9527698079894064
aF0.952880158905319
aF0.9532112116530567
aF0.9532112116530567
aF0.9533215625689693
aF0.9533215625689693
aF0.9535422644007945
aF0.9535422644007945
aF0.9536526153167071
aF0.9536526153167071
aF0.9537629662326197
aF0.9538733171485323
aF0.9538733171485323
aF0.9538733171485323
aF0.9539836680644449
aF0.9539836680644449
aF0.9540940189803575
aF0.9540940189803575
aF0.9540940189803575
aF0.9544250717280953
aF0.9546457735599205
aF0.9547561244758331
aF0.9547561244758331
aF0.9547561244758331
aF0.9548664753917457
aF0.9549768263076583
aF0.955087177223571
aF0.9551975281394836
aF0.9551975281394836
aF0.9553078790553962
aF0.9553078790553962
aF0.9555285808872214
aF0.9555285808872214
aF0.955638931803134
aF0.955638931803134
aF0.9557492827190466
aF0.956190686382697
aF0.956190686382697
aF0.956190686382697
aF0.9563010372986096
aF0.9563010372986096
aF0.9565217391304348
aF0.9566320900463474
aF0.9570734937099978
aF0.9574045464577357
aF0.9574045464577357
aF0.9576252482895607
aF0.9576252482895607
aF0.9577355992054734
aF0.9577355992054734
aF0.957845950121386
aF0.9579563010372986
aF0.9580666519532112
aF0.9581770028691238
aF0.9581770028691238
aF0.9581770028691238
aF0.9581770028691238
aF0.9582873537850364
aF0.9585080556168616
aF0.9585080556168616
aF0.9586184065327742
aF0.9588391083645994
aF0.9591701611123372
aF0.9592805120282498
aF0.9593908629441624
aF0.9593908629441624
aF0.959501213860075
aF0.9597219156919002
aF0.960052968439638
aF0.9601633193555507
aF0.9607150739351137
aF0.9607150739351137
aF0.9608254248510263
aF0.9609357757669389
aF0.9610461266828515
aF0.9610461266828515
aF0.9610461266828515
aF0.9612668285146767
aF0.9612668285146767
aF0.9612668285146767
aF0.9613771794305893
aF0.9613771794305893
aF0.9614875303465019
aF0.9614875303465019
aF0.9617082321783271
aF0.9617082321783271
aF0.9617082321783271
aF0.9617082321783271
aF0.9617082321783271
aF0.9617082321783271
aF0.9618185830942397
aF0.9619289340101523
aF0.9621496358419774
aF0.9621496358419774
aF0.9621496358419774
aF0.9621496358419774
aF0.9621496358419774
aF0.9621496358419774
aF0.96225998675789
aF0.96225998675789
aF0.9625910395056279
aF0.9625910395056279
aF0.9627013904215405
aF0.9628117413374531
aF0.9628117413374531
aF0.9628117413374531
aF0.9630324431692783
aF0.9632531450011035
aF0.9634738468329287
aF0.9634738468329287
aF0.9634738468329287
aF0.9634738468329287
aF0.9635841977488413
aF0.9635841977488413
aF0.9640256014124917
aF0.9640256014124917
aF0.9640256014124917
aF0.9641359523284043
aF0.9641359523284043
aF0.9643566541602295
aF0.9644670050761421
aF0.9644670050761421
aF0.96479805782388
aF0.9649084087397926
aF0.9649084087397926
aF0.9650187596557052
aF0.9650187596557052
aF0.9650187596557052
aF0.9650187596557052
aF0.9650187596557052
aF0.9650187596557052
aF0.9652394614875304
aF0.9652394614875304
aF0.9652394614875304
aF0.9654601633193556
aF0.9654601633193556
aF0.9654601633193556
aF0.9654601633193556
aF0.9654601633193556
aF0.9654601633193556
aF0.9654601633193556
aF0.9655705142352682
aF0.9655705142352682
aF0.9655705142352682
aF0.965901566983006
aF0.965901566983006
aF0.965901566983006
aF0.965901566983006
aF0.965901566983006
aF0.9663429706466564
aF0.9663429706466564
aF0.966453321562569
aF0.9665636724784815
aF0.9667843743103067
aF0.9667843743103067
aF0.9668947252262193
aF0.9670050761421319
aF0.9670050761421319
aF0.9670050761421319
aF0.9670050761421319
aF0.9671154270580445
aF0.9671154270580445
aF0.9671154270580445
aF0.9672257779739571
aF0.9672257779739571
aF0.9674464798057824
aF0.967556830721695
aF0.9676671816376076
aF0.9676671816376076
aF0.9678878834694328
aF0.9678878834694328
aF0.9678878834694328
aF0.9679982343853454
aF0.9679982343853454
aF0.9679982343853454
aF0.9683292871330832
aF0.9684396380489958
aF0.9685499889649084
aF0.9685499889649084
aF0.9685499889649084
aF0.9685499889649084
aF0.968660339880821
aF0.9687706907967336
aF0.9688810417126462
aF0.9688810417126462
aF0.9691017435444714
aF0.969212094460384
aF0.9693224453762966
aF0.9693224453762966
aF0.9693224453762966
aF0.9694327962922092
aF0.9696534981240345
aF0.9696534981240345
aF0.9696534981240345
aF0.9696534981240345
aF0.9696534981240345
aF0.9697638490399471
aF0.9697638490399471
aF0.9697638490399471
aF0.9697638490399471
aF0.9698741999558597
aF0.9702052527035975
aF0.9703156036195101
aF0.9704259545354227
aF0.9704259545354227
aF0.9705363054513353
aF0.9705363054513353
aF0.9705363054513353
aF0.9705363054513353
aF0.9706466563672479
aF0.9706466563672479
aF0.9706466563672479
aF0.9707570072831605
aF0.9709777091149857
aF0.9710880600308982
aF0.9710880600308982
aF0.9710880600308982
aF0.9710880600308982
aF0.9711984109468108
aF0.9711984109468108
aF0.9713087618627234
aF0.9713087618627234
aF0.9715294636945486
aF0.9716398146104612
aF0.9717501655263738
aF0.9717501655263738
aF0.9718605164422864
aF0.971970867358199
aF0.971970867358199
aF0.9720812182741116
aF0.9720812182741116
aF0.9720812182741116
aF0.9721915691900243
aF0.9721915691900243
aF0.9723019201059369
aF0.9723019201059369
aF0.9723019201059369
aF0.9723019201059369
aF0.9725226219377621
aF0.9725226219377621
aF0.9725226219377621
aF0.9725226219377621
aF0.9725226219377621
aF0.9725226219377621
aF0.9725226219377621
aF0.9725226219377621
aF0.9726329728536747
aF0.9727433237695873
aF0.9727433237695873
aF0.9727433237695873
aF0.9727433237695873
aF0.9727433237695873
aF0.9727433237695873
aF0.9727433237695873
aF0.9730743765173251
aF0.9731847274332377
aF0.9732950783491503
aF0.9732950783491503
aF0.9734054292650629
aF0.9737364820128007
aF0.9737364820128007
aF0.9737364820128007
aF0.9737364820128007
aF0.9738468329287133
aF0.9738468329287133
aF0.9738468329287133
aF0.9738468329287133
aF0.9738468329287133
aF0.9738468329287133
aF0.9738468329287133
aF0.9738468329287133
aF0.9739571838446259
aF0.9740675347605385
aF0.9741778856764511
aF0.9741778856764511
aF0.9742882365923637
aF0.9743985875082763
aF0.974508938424189
aF0.9746192893401016
aF0.9747296402560142
aF0.9748399911719268
aF0.9749503420878394
aF0.9749503420878394
aF0.9749503420878394
aF0.9749503420878394
aF0.975060693003752
aF0.9751710439196646
aF0.9753917457514898
aF0.9756124475833149
aF0.9756124475833149
aF0.9756124475833149
aF0.9757227984992275
aF0.9757227984992275
aF0.9757227984992275
aF0.9757227984992275
aF0.9757227984992275
aF0.9757227984992275
aF0.9757227984992275
aF0.9759435003310527
aF0.9761642021628779
aF0.9761642021628779
aF0.9762745530787905
aF0.9763849039947031
aF0.9763849039947031
aF0.9766056058265283
aF0.9767159567424409
aF0.9768263076583535
aF0.9768263076583535
aF0.9768263076583535
aF0.9768263076583535
aF0.9769366585742661
aF0.9769366585742661
aF0.9769366585742661
aF0.9769366585742661
aF0.9770470094901788
aF0.9770470094901788
aF0.9771573604060914
aF0.9771573604060914
aF0.9771573604060914
aF0.9771573604060914
aF0.9771573604060914
aF0.9771573604060914
aF0.9771573604060914
aF0.9771573604060914
aF0.9771573604060914
aF0.9771573604060914
aF0.977267711322004
aF0.977267711322004
aF0.9773780622379166
aF0.9773780622379166
aF0.9775987640697418
aF0.9775987640697418
aF0.977819465901567
aF0.9779298168174796
aF0.9779298168174796
aF0.9779298168174796
aF0.9780401677333922
aF0.9780401677333922
aF0.9780401677333922
aF0.9780401677333922
aF0.9780401677333922
aF0.9781505186493048
aF0.9781505186493048
aF0.9781505186493048
aF0.9784815713970426
aF0.9784815713970426
aF0.9784815713970426
aF0.9785919223129552
aF0.9785919223129552
aF0.9785919223129552
aF0.9788126241447804
aF0.978922975060693
aF0.9790333259766056
aF0.9790333259766056
aF0.9791436768925182
aF0.9791436768925182
aF0.9791436768925182
aF0.9793643787243435
aF0.9793643787243435
aF0.9793643787243435
aF0.9793643787243435
aF0.9794747296402561
aF0.9794747296402561
aF0.9794747296402561
aF0.9794747296402561
aF0.9794747296402561
aF0.9794747296402561
aF0.9795850805561687
aF0.9795850805561687
aF0.9798057823879939
aF0.9798057823879939
aF0.9799161333039064
aF0.980026484219819
aF0.9802471860516442
aF0.9802471860516442
aF0.9803575369675568
aF0.9803575369675568
aF0.9803575369675568
aF0.9803575369675568
aF0.9803575369675568
aF0.9803575369675568
aF0.9803575369675568
aF0.9803575369675568
aF0.9803575369675568
aF0.9803575369675568
aF0.9803575369675568
aF0.9803575369675568
aF0.9803575369675568
aF0.9803575369675568
aF0.9803575369675568
aF0.9803575369675568
aF0.9804678878834694
aF0.980578238799382
aF0.980578238799382
aF0.9806885897152946
aF0.9807989406312072
aF0.9807989406312072
aF0.9809092915471198
aF0.9809092915471198
aF0.9809092915471198
aF0.9809092915471198
aF0.981129993378945
aF0.981129993378945
aF0.9812403442948576
aF0.9812403442948576
aF0.9814610461266828
aF0.9815713970425954
aF0.9815713970425954
aF0.9815713970425954
aF0.981681747958508
aF0.981681747958508
aF0.981681747958508
aF0.981681747958508
aF0.981681747958508
aF0.9817920988744206
aF0.9817920988744206
aF0.9819024497903333
aF0.9819024497903333
aF0.9819024497903333
aF0.9819024497903333
aF0.9819024497903333
aF0.9819024497903333
aF0.9820128007062459
aF0.9820128007062459
aF0.9820128007062459
aF0.9820128007062459
aF0.9820128007062459
aF0.9820128007062459
aF0.9820128007062459
aF0.9820128007062459
aF0.9820128007062459
aF0.9821231516221585
aF0.9822335025380711
aF0.9822335025380711
aF0.9822335025380711
aF0.9822335025380711
aF0.9823438534539837
aF0.9823438534539837
aF0.9823438534539837
aF0.9823438534539837
aF0.9824542043698963
aF0.9824542043698963
aF0.9824542043698963
aF0.9824542043698963
aF0.9825645552858089
aF0.9825645552858089
aF0.9827852571176341
aF0.9828956080335467
aF0.9828956080335467
aF0.9828956080335467
aF0.9828956080335467
aF0.9828956080335467
aF0.9828956080335467
aF0.9828956080335467
aF0.9828956080335467
aF0.9828956080335467
aF0.9828956080335467
aF0.9831163098653719
aF0.9831163098653719
aF0.9831163098653719
aF0.9831163098653719
aF0.9832266607812845
aF0.9834473626131097
aF0.9835577135290223
aF0.9835577135290223
aF0.9837784153608475
aF0.9837784153608475
aF0.9837784153608475
aF0.9837784153608475
aF0.9837784153608475
aF0.9838887662767601
aF0.9838887662767601
aF0.9839991171926727
aF0.9839991171926727
aF0.9839991171926727
aF0.984219819024498
aF0.984219819024498
aF0.984440520856323
aF0.9845508717722357
aF0.9846612226881483
aF0.9846612226881483
aF0.9847715736040609
aF0.9847715736040609
aF0.9847715736040609
aF0.9847715736040609
aF0.9847715736040609
aF0.9847715736040609
aF0.9847715736040609
aF0.9848819245199735
aF0.9848819245199735
aF0.9848819245199735
aF0.9848819245199735
aF0.9848819245199735
aF0.9852129772677113
aF0.9854336790995365
aF0.9854336790995365
aF0.9854336790995365
aF0.9854336790995365
aF0.9855440300154491
aF0.9856543809313617
aF0.9856543809313617
aF0.9857647318472743
aF0.9857647318472743
aF0.9858750827631869
aF0.9858750827631869
aF0.9858750827631869
aF0.9858750827631869
aF0.9858750827631869
aF0.9859854336790995
aF0.9859854336790995
aF0.9860957845950121
aF0.9860957845950121
aF0.9860957845950121
aF0.9860957845950121
aF0.9862061355109247
aF0.9862061355109247
aF0.9862061355109247
aF0.9862061355109247
aF0.9862061355109247
aF0.9862061355109247
aF0.9862061355109247
aF0.9862061355109247
aF0.9863164864268373
aF0.9863164864268373
aF0.9864268373427499
aF0.9864268373427499
aF0.9864268373427499
aF0.9864268373427499
aF0.9865371882586625
aF0.9866475391745751
aF0.9866475391745751
aF0.9867578900904878
aF0.9868682410064004
aF0.986978591922313
aF0.986978591922313
aF0.986978591922313
aF0.9870889428382256
aF0.9871992937541382
aF0.9871992937541382
aF0.9874199955859634
aF0.9874199955859634
aF0.9874199955859634
aF0.987530346501876
aF0.987530346501876
aF0.9876406974177886
aF0.9876406974177886
aF0.9876406974177886
aF0.9877510483337012
aF0.9877510483337012
aF0.9878613992496138
aF0.9878613992496138
aF0.9878613992496138
aF0.9878613992496138
aF0.9878613992496138
aF0.9879717501655264
aF0.9879717501655264
aF0.9879717501655264
aF0.988082101081439
aF0.988082101081439
aF0.9881924519973516
aF0.9881924519973516
aF0.9883028029132642
aF0.9884131538291768
aF0.9884131538291768
aF0.9884131538291768
aF0.9884131538291768
aF0.9884131538291768
aF0.9884131538291768
aF0.9884131538291768
aF0.9885235047450894
aF0.9885235047450894
aF0.9885235047450894
aF0.9885235047450894
aF0.9885235047450894
aF0.9885235047450894
aF0.9885235047450894
aF0.9885235047450894
aF0.9885235047450894
aF0.9885235047450894
aF0.9885235047450894
aF0.988633855661002
aF0.9888545574928271
aF0.9888545574928271
aF0.9888545574928271
aF0.9890752593246523
aF0.9890752593246523
aF0.9890752593246523
aF0.9890752593246523
aF0.989185610240565
aF0.989185610240565
aF0.9892959611564776
aF0.9892959611564776
aF0.9895166629883028
aF0.9895166629883028
aF0.9895166629883028
aF0.9895166629883028
aF0.9895166629883028
aF0.9895166629883028
aF0.9895166629883028
aF0.9895166629883028
aF0.9895166629883028
aF0.9895166629883028
aF0.9895166629883028
aF0.9896270139042154
aF0.9896270139042154
aF0.9896270139042154
aF0.9896270139042154
aF0.9896270139042154
aF0.9896270139042154
aF0.9896270139042154
aF0.9896270139042154
aF0.9896270139042154
aF0.9896270139042154
aF0.9896270139042154
aF0.9896270139042154
aF0.989737364820128
aF0.989737364820128
aF0.989737364820128
aF0.989737364820128
aF0.9899580666519532
aF0.9899580666519532
aF0.9899580666519532
aF0.9899580666519532
aF0.9899580666519532
aF0.9900684175678658
aF0.9901787684837784
aF0.9901787684837784
aF0.9901787684837784
aF0.9901787684837784
aF0.9901787684837784
aF0.9901787684837784
aF0.9901787684837784
aF0.9901787684837784
aF0.9901787684837784
aF0.9901787684837784
aF0.9901787684837784
aF0.9901787684837784
aF0.990289119399691
aF0.990289119399691
aF0.990289119399691
aF0.990289119399691
aF0.990289119399691
aF0.9903994703156036
aF0.9903994703156036
aF0.9905098212315162
aF0.9905098212315162
aF0.9906201721474288
aF0.9906201721474288
aF0.9906201721474288
aF0.9906201721474288
aF0.9906201721474288
aF0.9906201721474288
aF0.9906201721474288
aF0.9907305230633414
aF0.9907305230633414
aF0.9907305230633414
aF0.9907305230633414
aF0.9907305230633414
aF0.9907305230633414
aF0.9907305230633414
aF0.990840873979254
aF0.990840873979254
aF0.9909512248951666
aF0.9910615758110792
aF0.9910615758110792
aF0.9911719267269918
aF0.9911719267269918
aF0.9912822776429044
aF0.9912822776429044
aF0.991392628558817
aF0.991392628558817
aF0.9915029794747297
aF0.9915029794747297
aF0.9915029794747297
aF0.9916133303906423
aF0.9917236813065549
aF0.9917236813065549
aF0.9918340322224675
aF0.9918340322224675
aF0.9919443831383801
aF0.9920547340542927
aF0.9920547340542927
aF0.9921650849702053
aF0.9921650849702053
aF0.9921650849702053
aF0.9922754358861179
aF0.9924961377179431
aF0.9924961377179431
aF0.9924961377179431
aF0.9924961377179431
aF0.9924961377179431
aF0.9926064886338557
aF0.9927168395497683
aF0.9927168395497683
aF0.9927168395497683
aF0.9927168395497683
aF0.9927168395497683
aF0.9928271904656809
aF0.9928271904656809
aF0.9929375413815935
aF0.9929375413815935
aF0.9929375413815935
aF0.9929375413815935
aF0.9929375413815935
aF0.9929375413815935
aF0.9929375413815935
aF0.9929375413815935
aF0.9929375413815935
aF0.9929375413815935
aF0.9929375413815935
aF0.9929375413815935
aF0.9929375413815935
aF0.9929375413815935
aF0.9929375413815935
aF0.9929375413815935
aF0.9930478922975061
aF0.9931582432134187
aF0.9931582432134187
aF0.9931582432134187
aF0.9931582432134187
aF0.9931582432134187
aF0.9931582432134187
aF0.9931582432134187
aF0.9932685941293313
aF0.9932685941293313
aF0.9933789450452438
aF0.9933789450452438
aF0.9933789450452438
aF0.9933789450452438
aF0.9933789450452438
aF0.9933789450452438
aF0.9933789450452438
aF0.9933789450452438
aF0.9933789450452438
aF0.9933789450452438
aF0.9933789450452438
aF0.9933789450452438
aF0.9934892959611564
aF0.993599646877069
aF0.993599646877069
aF0.993599646877069
aF0.993599646877069
aF0.993599646877069
aF0.993599646877069
aF0.993599646877069
aF0.993599646877069
aF0.993599646877069
aF0.993599646877069
aF0.993599646877069
aF0.993599646877069
aF0.993599646877069
aF0.9937099977929816
aF0.9937099977929816
aF0.9937099977929816
aF0.9937099977929816
aF0.9937099977929816
aF0.9937099977929816
aF0.9938203487088942
aF0.9938203487088942
aF0.9938203487088942
aF0.9938203487088942
aF0.9938203487088942
aF0.9938203487088942
aF0.9938203487088942
aF0.9939306996248068
aF0.9939306996248068
aF0.9939306996248068
aF0.9940410505407195
aF0.9940410505407195
aF0.9941514014566321
aF0.9941514014566321
aF0.9941514014566321
aF0.9941514014566321
aF0.9942617523725447
aF0.9942617523725447
aF0.9942617523725447
aF0.9942617523725447
aF0.9942617523725447
aF0.9942617523725447
aF0.9942617523725447
aF0.9943721032884573
aF0.9943721032884573
aF0.9943721032884573
aF0.9943721032884573
aF0.9944824542043699
aF0.9944824542043699
aF0.9944824542043699
aF0.9944824542043699
aF0.9944824542043699
aF0.9944824542043699
aF0.9944824542043699
aF0.9944824542043699
aF0.9944824542043699
aF0.9944824542043699
aF0.9944824542043699
aF0.9944824542043699
aF0.9944824542043699
aF0.9944824542043699
aF0.9945928051202825
aF0.9947031560361951
aF0.9947031560361951
aF0.9947031560361951
aF0.9947031560361951
aF0.9947031560361951
aF0.9947031560361951
aF0.9947031560361951
aF0.9947031560361951
aF0.9947031560361951
aF0.9947031560361951
aF0.9947031560361951
aF0.9947031560361951
aF0.9947031560361951
aF0.9947031560361951
aF0.9947031560361951
aF0.9947031560361951
aF0.9948135069521077
aF0.9948135069521077
aF0.9948135069521077
aF0.9948135069521077
aF0.9948135069521077
aF0.9948135069521077
aF0.9948135069521077
aF0.9948135069521077
aF0.9949238578680203
aF0.9949238578680203
aF0.9949238578680203
aF0.9949238578680203
aF0.9949238578680203
aF0.9949238578680203
aF0.9949238578680203
aF0.9949238578680203
aF0.9949238578680203
aF0.9949238578680203
aF0.9949238578680203
aF0.9949238578680203
aF0.9949238578680203
aF0.9949238578680203
aF0.9950342087839329
aF0.9950342087839329
aF0.9950342087839329
aF0.9950342087839329
aF0.9950342087839329
aF0.9951445596998455
aF0.9951445596998455
aF0.9951445596998455
aF0.9951445596998455
aF0.9951445596998455
aF0.9951445596998455
aF0.9951445596998455
aF0.9951445596998455
aF0.9951445596998455
aF0.9951445596998455
aF0.9951445596998455
aF0.9951445596998455
aF0.9952549106157581
aF0.9952549106157581
aF0.9952549106157581
aF0.9952549106157581
aF0.9952549106157581
aF0.9953652615316707
aF0.9954756124475833
aF0.9955859633634959
aF0.9956963142794085
aF0.9956963142794085
aF0.9956963142794085
aF0.9956963142794085
aF0.9956963142794085
aF0.9956963142794085
aF0.9956963142794085
aF0.9956963142794085
aF0.9958066651953211
aF0.9958066651953211
aF0.9958066651953211
aF0.9958066651953211
aF0.9959170161112337
aF0.9959170161112337
aF0.9959170161112337
aF0.9959170161112337
aF0.9959170161112337
aF0.9960273670271463
aF0.9960273670271463
aF0.9960273670271463
aF0.9960273670271463
aF0.9961377179430589
aF0.9961377179430589
aF0.9961377179430589
aF0.9961377179430589
aF0.9961377179430589
aF0.9961377179430589
aF0.9961377179430589
aF0.9961377179430589
aF0.9961377179430589
aF0.9961377179430589
aF0.9961377179430589
aF0.9961377179430589
aF0.9962480688589715
aF0.9962480688589715
aF0.9962480688589715
aF0.9962480688589715
aF0.9962480688589715
aF0.9962480688589715
aF0.9962480688589715
aF0.9962480688589715
aF0.9962480688589715
aF0.9962480688589715
aF0.9962480688589715
aF0.9962480688589715
aF0.9962480688589715
aF0.9962480688589715
aF0.9962480688589715
aF0.9962480688589715
aF0.9962480688589715
aF0.9962480688589715
aF0.9962480688589715
aF0.9962480688589715
aF0.9962480688589715
aF0.9962480688589715
aF0.9962480688589715
aF0.9962480688589715
aF0.9962480688589715
aF0.9962480688589715
aF0.9962480688589715
aF0.9962480688589715
aF0.9963584197748842
aF0.9963584197748842
aF0.9963584197748842
aF0.9963584197748842
aF0.9963584197748842
aF0.9964687706907968
aF0.9964687706907968
aF0.9964687706907968
aF0.9964687706907968
aF0.9964687706907968
aF0.9964687706907968
aF0.9964687706907968
aF0.9964687706907968
aF0.9964687706907968
aF0.9964687706907968
aF0.9964687706907968
aF0.9964687706907968
aF0.9964687706907968
aF0.9965791216067094
aF0.9965791216067094
aF0.9965791216067094
aF0.9965791216067094
aF0.9965791216067094
aF0.9965791216067094
aF0.9965791216067094
aF0.9965791216067094
aF0.9965791216067094
aF0.9965791216067094
aF0.9965791216067094
aF0.9965791216067094
aF0.9965791216067094
aF0.9965791216067094
aF0.9965791216067094
aF0.9965791216067094
aF0.9965791216067094
aF0.9965791216067094
aF0.9965791216067094
aF0.9965791216067094
aF0.9965791216067094
aF0.9965791216067094
aF0.9965791216067094
aF0.9965791216067094
aF0.9965791216067094
aF0.9965791216067094
aF0.9965791216067094
aF0.9965791216067094
aF0.9965791216067094
aF0.9965791216067094
aF0.9965791216067094
aF0.9965791216067094
aF0.9965791216067094
aF0.9965791216067094
aF0.9965791216067094
aF0.996689472522622
aF0.996689472522622
aF0.996689472522622
aF0.996689472522622
aF0.996689472522622
aF0.996689472522622
aF0.996689472522622
aF0.9967998234385346
aF0.9967998234385346
aF0.9967998234385346
aF0.9967998234385346
aF0.9969101743544472
aF0.9970205252703598
aF0.9970205252703598
aF0.9970205252703598
aF0.9970205252703598
aF0.9970205252703598
aF0.9970205252703598
aF0.9970205252703598
aF0.9970205252703598
aF0.9970205252703598
aF0.9970205252703598
aF0.9970205252703598
aF0.9970205252703598
aF0.9970205252703598
aF0.9970205252703598
aF0.9970205252703598
aF0.9970205252703598
aF0.9970205252703598
aF0.9970205252703598
aF0.9970205252703598
aF0.9971308761862724
aF0.9971308761862724
aF0.9971308761862724
aF0.9971308761862724
aF0.9971308761862724
aF0.9971308761862724
aF0.9971308761862724
aF0.9971308761862724
aF0.9971308761862724
aF0.9971308761862724
aF0.9971308761862724
aF0.9971308761862724
aF0.9971308761862724
aF0.9971308761862724
aF0.9971308761862724
aF0.9971308761862724
aF0.997241227102185
aF0.997241227102185
aF0.997241227102185
aF0.997241227102185
aF0.997241227102185
aF0.997241227102185
aF0.997241227102185
aF0.997241227102185
aF0.997241227102185
aF0.997241227102185
aF0.997241227102185
aF0.997241227102185
aF0.997241227102185
aF0.997241227102185
aF0.997241227102185
aF0.9973515780180976
aF0.9973515780180976
aF0.9973515780180976
aF0.9973515780180976
aF0.9973515780180976
aF0.9974619289340102
aF0.9974619289340102
aF0.9974619289340102
aF0.9974619289340102
aF0.9974619289340102
aF0.9974619289340102
aF0.9974619289340102
aF0.9974619289340102
aF0.9974619289340102
aF0.9974619289340102
aF0.9975722798499228
aF0.9975722798499228
aF0.9975722798499228
aF0.9975722798499228
aF0.9975722798499228
aF0.9975722798499228
aF0.9975722798499228
aF0.9975722798499228
aF0.9976826307658354
aF0.9977929816817479
aF0.9977929816817479
aF0.9977929816817479
aF0.9977929816817479
aF0.9977929816817479
aF0.9977929816817479
aF0.9977929816817479
aF0.9977929816817479
aF0.9977929816817479
aF0.9977929816817479
aF0.9977929816817479
aF0.9977929816817479
aF0.9977929816817479
aF0.9977929816817479
aF0.9977929816817479
aF0.9977929816817479
aF0.9977929816817479
aF0.9979033325976605
aF0.9979033325976605
aF0.9979033325976605
aF0.9979033325976605
aF0.9979033325976605
aF0.9979033325976605
aF0.9979033325976605
aF0.9979033325976605
aF0.9980136835135731
aF0.9980136835135731
aF0.9980136835135731
aF0.9980136835135731
aF0.9980136835135731
aF0.9980136835135731
aF0.9980136835135731
aF0.9980136835135731
aF0.9980136835135731
aF0.9980136835135731
aF0.9980136835135731
aF0.9980136835135731
aF0.9980136835135731
aF0.9980136835135731
aF0.9980136835135731
aF0.9980136835135731
aF0.9980136835135731
aF0.9980136835135731
aF0.9980136835135731
aF0.9980136835135731
aF0.9980136835135731
aF0.9980136835135731
aF0.9980136835135731
aF0.9980136835135731
aF0.9980136835135731
aF0.9980136835135731
aF0.9980136835135731
aF0.9980136835135731
aF0.9980136835135731
aF0.9980136835135731
aF0.9980136835135731
aF0.9980136835135731
aF0.9980136835135731
aF0.9980136835135731
aF0.9980136835135731
aF0.9980136835135731
aF0.9980136835135731
aF0.9980136835135731
aF0.9980136835135731
aF0.9980136835135731
aF0.9980136835135731
aF0.9980136835135731
aF0.9980136835135731
aF0.9980136835135731
aF0.9980136835135731
aF0.9980136835135731
aF0.9980136835135731
aF0.9980136835135731
aF0.9980136835135731
aF0.9980136835135731
aF0.9980136835135731
aF0.9980136835135731
aF0.9980136835135731
aF0.9980136835135731
aF0.9980136835135731
aF0.9980136835135731
aF0.9980136835135731
aF0.9980136835135731
aF0.9980136835135731
aF0.9980136835135731
aF0.9980136835135731
aF0.9980136835135731
aF0.9980136835135731
aF0.9980136835135731
aF0.9980136835135731
aF0.9980136835135731
aF0.9980136835135731
aF0.9980136835135731
aF0.9980136835135731
aF0.9980136835135731
aF0.9980136835135731
aF0.9980136835135731
aF0.9980136835135731
aF0.9980136835135731
aF0.9980136835135731
aF0.9980136835135731
aF0.9980136835135731
aF0.9980136835135731
aF0.9980136835135731
aF0.9980136835135731
aF0.9980136835135731
aF0.9980136835135731
aF0.9980136835135731
aF0.9980136835135731
aF0.9980136835135731
aF0.9980136835135731
aF0.9980136835135731
aF0.9980136835135731
aF0.9980136835135731
aF0.9980136835135731
aF0.9980136835135731
aF0.9980136835135731
aF0.9980136835135731
aF0.9980136835135731
aF0.9980136835135731
aF0.9980136835135731
aF0.9980136835135731
aF0.9980136835135731
aF0.9980136835135731
aF0.9980136835135731
aF0.9980136835135731
aF0.9980136835135731
aF0.9980136835135731
aF0.9980136835135731
aF0.9980136835135731
aF0.9980136835135731
aF0.9980136835135731
aF0.9980136835135731
aF0.9980136835135731
aF0.9980136835135731
aF0.9980136835135731
aF0.9980136835135731
aF0.9980136835135731
aF0.9980136835135731
aF0.9980136835135731
aF0.9980136835135731
aF0.9980136835135731
aF0.9980136835135731
aF0.9981240344294857
aF0.9981240344294857
aF0.9981240344294857
aF0.9981240344294857
aF0.9981240344294857
aF0.9981240344294857
aF0.9981240344294857
aF0.9981240344294857
aF0.9981240344294857
aF0.9981240344294857
aF0.9982343853453983
aF0.9982343853453983
aF0.9982343853453983
aF0.9982343853453983
aF0.9982343853453983
aF0.9982343853453983
aF0.9982343853453983
aF0.9982343853453983
aF0.9982343853453983
aF0.9982343853453983
aF0.9982343853453983
aF0.9982343853453983
aF0.9982343853453983
aF0.9982343853453983
aF0.9983447362613109
aF0.9983447362613109
aF0.9983447362613109
aF0.9983447362613109
aF0.9983447362613109
aF0.9983447362613109
aF0.9983447362613109
aF0.9983447362613109
aF0.9983447362613109
aF0.9983447362613109
aF0.9983447362613109
aF0.9983447362613109
aF0.9983447362613109
aF0.9983447362613109
aF0.9983447362613109
aF0.9983447362613109
aF0.9983447362613109
aF0.9983447362613109
aF0.9983447362613109
aF0.9983447362613109
aF0.9983447362613109
aF0.9983447362613109
aF0.9983447362613109
aF0.9983447362613109
aF0.9983447362613109
aF0.9983447362613109
aF0.9983447362613109
aF0.9983447362613109
aF0.9983447362613109
aF0.9983447362613109
aF0.9983447362613109
aF0.9983447362613109
aF0.9983447362613109
aF0.9983447362613109
aF0.9983447362613109
aF0.9983447362613109
aF0.9983447362613109
aF0.9983447362613109
aF0.9983447362613109
aF0.9983447362613109
aF0.9983447362613109
aF0.9983447362613109
aF0.9984550871772235
aF0.9984550871772235
aF0.9984550871772235
aF0.9984550871772235
aF0.9984550871772235
aF0.9984550871772235
aF0.9984550871772235
aF0.9984550871772235
aF0.9984550871772235
aF0.9984550871772235
aF0.9984550871772235
aF0.9984550871772235
aF0.9984550871772235
aF0.9984550871772235
aF0.9984550871772235
aF0.9984550871772235
aF0.9984550871772235
aF0.9984550871772235
aF0.9984550871772235
aF0.9984550871772235
aF0.9984550871772235
aF0.9984550871772235
aF0.9984550871772235
aF0.9984550871772235
aF0.9984550871772235
aF0.9984550871772235
aF0.9984550871772235
aF0.9984550871772235
aF0.9984550871772235
aF0.9984550871772235
aF0.9985654380931361
aF0.9985654380931361
aF0.9985654380931361
aF0.9985654380931361
aF0.9985654380931361
aF0.9986757890090487
aF0.9986757890090487
aF0.9986757890090487
aF0.9986757890090487
aF0.9986757890090487
aF0.9986757890090487
aF0.9987861399249613
aF0.9987861399249613
aF0.9987861399249613
aF0.9987861399249613
aF0.9987861399249613
aF0.9987861399249613
aF0.9987861399249613
aF0.9987861399249613
aF0.9987861399249613
aF0.9987861399249613
aF0.9987861399249613
aF0.9987861399249613
aF0.9987861399249613
aF0.9987861399249613
aF0.9987861399249613
aF0.9987861399249613
aF0.9987861399249613
aF0.9987861399249613
aF0.9987861399249613
aF0.9987861399249613
aF0.9987861399249613
aF0.9987861399249613
aF0.9987861399249613
aF0.9987861399249613
aF0.9987861399249613
aF0.9987861399249613
aF0.9987861399249613
aF0.9987861399249613
aF0.9987861399249613
aF0.9987861399249613
aF0.9987861399249613
aF0.9987861399249613
aF0.9987861399249613
aF0.998896490840874
aF0.998896490840874
aF0.998896490840874
aF0.998896490840874
aF0.998896490840874
aF0.998896490840874
aF0.998896490840874
aF0.998896490840874
aF0.998896490840874
aF0.998896490840874
aF0.998896490840874
aF0.998896490840874
aF0.998896490840874
aF0.998896490840874
aF0.998896490840874
aF0.998896490840874
aF0.998896490840874
aF0.998896490840874
aF0.998896490840874
aF0.998896490840874
aF0.998896490840874
aF0.998896490840874
aF0.998896490840874
aF0.998896490840874
aF0.998896490840874
aF0.998896490840874
aF0.998896490840874
aF0.998896490840874
aF0.998896490840874
aF0.998896490840874
aF0.998896490840874
aF0.998896490840874
aF0.998896490840874
aF0.998896490840874
aF0.998896490840874
aF0.998896490840874
aF0.998896490840874
aF0.998896490840874
aF0.998896490840874
aF0.998896490840874
aF0.998896490840874
aF0.998896490840874
aF0.998896490840874
aF0.9990068417567866
aF0.9990068417567866
aF0.9990068417567866
aF0.9990068417567866
aF0.9990068417567866
aF0.9990068417567866
aF0.9990068417567866
aF0.9990068417567866
aF0.9990068417567866
aF0.9990068417567866
aF0.9990068417567866
aF0.9990068417567866
aF0.9990068417567866
aF0.9990068417567866
aF0.9990068417567866
aF0.9990068417567866
aF0.9990068417567866
aF0.9990068417567866
aF0.9990068417567866
aF0.9990068417567866
aF0.9990068417567866
aF0.9990068417567866
aF0.9990068417567866
aF0.9990068417567866
aF0.9990068417567866
aF0.9990068417567866
aF0.9990068417567866
aF0.9990068417567866
aF0.9990068417567866
aF0.9990068417567866
aF0.9990068417567866
aF0.9990068417567866
aF0.9990068417567866
aF0.9990068417567866
aF0.9990068417567866
aF0.9990068417567866
aF0.9990068417567866
aF0.9990068417567866
aF0.9990068417567866
aF0.9990068417567866
aF0.9990068417567866
aF0.9990068417567866
aF0.9990068417567866
aF0.9990068417567866
aF0.9990068417567866
aF0.9990068417567866
aF0.9990068417567866
aF0.9990068417567866
aF0.9990068417567866
aF0.9990068417567866
aF0.9990068417567866
aF0.9990068417567866
aF0.9990068417567866
aF0.9990068417567866
aF0.9990068417567866
aF0.9990068417567866
aF0.9990068417567866
aF0.9990068417567866
aF0.9990068417567866
aF0.9990068417567866
aF0.9990068417567866
aF0.9990068417567866
aF0.9990068417567866
aF0.9990068417567866
aF0.9991171926726992
aF0.9991171926726992
aF0.9991171926726992
aF0.9991171926726992
aF0.9991171926726992
aF0.9991171926726992
aF0.9991171926726992
aF0.9991171926726992
aF0.9991171926726992
aF0.9991171926726992
aF0.9991171926726992
aF0.9992275435886118
aF0.9992275435886118
aF0.9992275435886118
aF0.9992275435886118
aF0.9992275435886118
aF0.9992275435886118
aF0.9992275435886118
aF0.9992275435886118
aF0.9992275435886118
aF0.9992275435886118
aF0.9992275435886118
aF0.9992275435886118
aF0.9992275435886118
aF0.9992275435886118
aF0.9992275435886118
aF0.9992275435886118
aF0.9992275435886118
aF0.9992275435886118
aF0.9992275435886118
aF0.9992275435886118
aF0.9992275435886118
aF0.9992275435886118
aF0.9992275435886118
aF0.9992275435886118
aF0.9992275435886118
aF0.9992275435886118
aF0.9992275435886118
aF0.9992275435886118
aF0.9992275435886118
aF0.9992275435886118
aF0.9992275435886118
aF0.9992275435886118
aF0.9992275435886118
aF0.9992275435886118
aF0.9992275435886118
aF0.9992275435886118
aF0.9992275435886118
aF0.9992275435886118
aF0.9992275435886118
aF0.9992275435886118
aF0.9992275435886118
aF0.9992275435886118
aF0.9992275435886118
aF0.9992275435886118
aF0.9992275435886118
aF0.9993378945045244
aF0.9993378945045244
aF0.9993378945045244
aF0.9993378945045244
aF0.9993378945045244
aF0.9993378945045244
aF0.9993378945045244
aF0.9993378945045244
aF0.9993378945045244
aF0.9993378945045244
aF0.9993378945045244
aF0.9993378945045244
aF0.9993378945045244
aF0.9993378945045244
aF0.9993378945045244
aF0.9993378945045244
aF0.9993378945045244
aF0.9993378945045244
aF0.9993378945045244
aF0.9993378945045244
aF0.9993378945045244
aF0.9993378945045244
aF0.9993378945045244
aF0.9993378945045244
aF0.9993378945045244
aF0.9993378945045244
aF0.9993378945045244
aF0.9993378945045244
aF0.9993378945045244
aF0.999448245420437
aF0.999448245420437
aF0.999448245420437
aF0.999448245420437
aF0.999448245420437
aF0.999448245420437
aF0.999448245420437
aF0.999448245420437
aF0.999448245420437
aF0.999448245420437
aF0.999448245420437
aF0.999448245420437
aF0.999448245420437
aF0.999448245420437
aF0.999448245420437
aF0.999448245420437
aF0.999448245420437
aF0.999448245420437
aF0.999448245420437
aF0.999448245420437
aF0.999448245420437
aF0.999448245420437
aF0.999448245420437
aF0.999448245420437
aF0.999448245420437
aF0.999448245420437
aF0.999448245420437
aF0.999448245420437
aF0.999448245420437
aF0.999448245420437
aF0.999448245420437
aF0.999448245420437
aF0.999448245420437
aF0.999448245420437
aF0.999448245420437
aF0.999448245420437
aF0.999448245420437
aF0.999448245420437
aF0.999448245420437
aF0.999448245420437
aF0.999448245420437
aF0.999448245420437
aF0.999448245420437
aF0.999448245420437
aF0.999448245420437
aF0.999448245420437
aF0.999448245420437
aF0.999448245420437
aF0.999448245420437
aF0.999448245420437
aF0.999448245420437
aF0.999448245420437
aF0.999448245420437
aF0.999448245420437
aF0.999448245420437
aF0.999448245420437
aF0.999448245420437
aF0.999448245420437
aF0.999448245420437
aF0.999448245420437
aF0.999448245420437
aF0.999448245420437
aF0.999448245420437
aF0.9995585963363496
aF0.9995585963363496
aF0.9995585963363496
aF0.9995585963363496
aF0.9995585963363496
aF0.9995585963363496
aF0.9995585963363496
aF0.9995585963363496
aF0.9995585963363496
aF0.9996689472522622
aF0.9996689472522622
aF0.9996689472522622
aF0.9996689472522622
aF0.9996689472522622
aF0.9996689472522622
aF0.9996689472522622
aF0.9996689472522622
aF0.9996689472522622
aF0.9996689472522622
aF0.9996689472522622
aF0.9996689472522622
aF0.9996689472522622
aF0.9996689472522622
aF0.9996689472522622
aF0.9996689472522622
aF0.9996689472522622
aF0.9996689472522622
aF0.9996689472522622
aF0.9996689472522622
aF0.9996689472522622
aF0.9996689472522622
aF0.9996689472522622
aF0.9996689472522622
aF0.9996689472522622
aF0.9996689472522622
aF0.9996689472522622
aF0.9996689472522622
aF0.9996689472522622
aF0.9996689472522622
aF0.9996689472522622
aF0.9996689472522622
aF0.9997792981681748
aF0.9997792981681748
aF0.9997792981681748
aF0.9997792981681748
aF0.9997792981681748
aF0.9997792981681748
aF0.9997792981681748
aF0.9997792981681748
aF0.9997792981681748
aF0.9997792981681748
aF0.9997792981681748
aF0.9997792981681748
aF0.9997792981681748
aF0.9997792981681748
aF0.9997792981681748
aF0.9997792981681748
aF0.9997792981681748
aF0.9997792981681748
aF0.9997792981681748
aF0.9997792981681748
aF0.9997792981681748
aF0.9997792981681748
aF0.9997792981681748
aF0.9997792981681748
aF0.9997792981681748
aF0.9997792981681748
aF0.9997792981681748
aF0.9997792981681748
aF0.9997792981681748
aF0.9997792981681748
aF0.9997792981681748
aF0.9997792981681748
aF0.9997792981681748
aF0.9997792981681748
aF0.9997792981681748
aF0.9997792981681748
aF0.9997792981681748
aF0.9997792981681748
aF0.9997792981681748
aF0.9997792981681748
aF0.9997792981681748
aF0.9997792981681748
aF0.9997792981681748
aF0.9997792981681748
aF0.9997792981681748
aF0.9997792981681748
aF0.9997792981681748
aF0.9997792981681748
aF0.9997792981681748
aF0.9997792981681748
aF0.9997792981681748
aF0.9997792981681748
aF0.9997792981681748
aF0.9997792981681748
aF0.9997792981681748
aF0.9997792981681748
aF0.9997792981681748
aF0.9997792981681748
aF0.9997792981681748
aF0.9997792981681748
aF0.9997792981681748
aF0.9997792981681748
aF0.9997792981681748
aF0.9997792981681748
aF0.9997792981681748
aF0.9998896490840874
aF0.9998896490840874
aF0.9998896490840874
aF0.9998896490840874
aF0.9998896490840874
aF0.9998896490840874
aF0.9998896490840874
aF0.9998896490840874
aF0.9998896490840874
aF0.9998896490840874
aF0.9998896490840874
aF0.9998896490840874
aF0.9998896490840874
aF0.9998896490840874
aF0.9998896490840874
aF0.9998896490840874
aF0.9998896490840874
aF0.9998896490840874
aF0.9998896490840874
aF0.9998896490840874
aF0.9998896490840874
aF0.9998896490840874
aF0.9998896490840874
aF0.9998896490840874
aF0.9998896490840874
aF0.9998896490840874
aF0.9998896490840874
aF0.9998896490840874
aF0.9998896490840874
aF0.9998896490840874
aF0.9998896490840874
aF0.9998896490840874
aF0.9998896490840874
aF0.9998896490840874
aF0.9998896490840874
aF0.9998896490840874
aF0.9998896490840874
aF0.9998896490840874
aF0.9998896490840874
aF0.9998896490840874
aF0.9998896490840874
aF0.9998896490840874
aF0.9998896490840874
aF0.9998896490840874
aF0.9998896490840874
aF0.9998896490840874
aF0.9998896490840874
aF0.9998896490840874
aF0.9998896490840874
aF0.9998896490840874
aF0.9998896490840874
aF0.9998896490840874
aF0.9998896490840874
aF0.9998896490840874
aF0.9998896490840874
aF0.9998896490840874
aF0.9998896490840874
aF0.9998896490840874
aF0.9998896490840874
aF0.9998896490840874
aF0.9998896490840874
aF0.9998896490840874
aF0.9998896490840874
aF0.9998896490840874
aF0.9998896490840874
aF0.9998896490840874
aF0.9998896490840874
aF1.0
asS'granularity'
p6
F5.96589754634634e-07
sS'min_val'
p7
F4.876423306052454e-06
sb.(c__builtin__
set
p0
((lp1
V1
p2
aV0
p3
aV3
p4
aV2
p5
aV5
p6
aV4
p7
aV7
p8
aV6
p9
aV9
p10
aV8
p11
aVA
p12
aVC
p13
aVB
p14
aVE
p15
aVD
p16
aVG
p17
aVF
p18
aVI
p19
aVH
p20
aVK
p21
aVJ
p22
aVM
p23
aVL
p24
aVO
p25
aVN
p26
aVQ
p27
aVP
p28
aVS
p29
aVR
p30
aVU
p31
aVT
p32
aVW
p33
aVV
p34
aVY
p35
aVX
p36
aVZ
p37
aS'804d80a7ee53052fcafa017f10c79061'
p38
aS'd10a34231df626d6029607b3b8eed99a'
p39
atp40
Rp41
I3
I123041
tp42
.S'x\x9c\xad\x9d\xcb\x96\x1c\xc7\xd1\xa4_E\xa7\xd7\xb1\xa8\xbcW\xcdN"\x01\t"\t^ ^w\xfa\x7fI/\xc1\xd3\xef>\xe8\xcc\xfc,\xcc=\xb35\x91\x9c\xde\x08\x02\xd1]\x15Wwsss\x8f\xdf\x9f\xba\xa7\xff\xf3\xa7\xdf\x9f\xbe\\\xff\xf7o\x9f\xff\xb7{.\x7fzz\xbf\xfe\xf5\x07\xfe\xfai\xfd\xeb\xb7\xfc\xf5\xb6\xfeu\xe0\xaf\xc3\xfa\xd7\x8e\xbfN\xf1\xaf\x0f\xfd\xf0\xf0\xf9o\xfd\xcb\x7f\xde\x7f\xa8\xff\xfc\xe7\xb8\xff9\xf3\xe3\xf7\xf5\xc7\xb7\xbf\xc6\xef\xfa\xdd~\xe86\xfe\xeb~\xfb\xe7\xf2\xef\x7fO\xc3m\xea\xff\xf3\xbf\xff\xfc\xcf?o\xdd\xf2\x9f\xee\xf6\xbf\xcb\xe36oSj\xf8\xa1\xed+\xea\xf8\x7f_Gk\xe3h\xfa\x8c\xcf?\xbd\xb4\xfet\xff\xbcO\xf6\xf7\xa7\xef4\x80\xde\x06\xf0i_\xa0/\xf7?\xdf\xf3\x15c\xfd\xe7\xb7\\\x82\xfe9\xee\x99-\xc16\xac\x91\xbf~\x8c\x87\xe0\xed\xf6@+\xd2<\xdcm-n\x97\xbe\xe2S<\xd2\xfd\xb53\xd2\xbc\xc1\x17f\xb1M:]\xb5\xb7\xfb\x8a\xcf\x1f\xf6\xdd\x1f\x9es\x18^w\xbc\xa0\xcd\x0bW\xaf\xff\xef\xeb\xafv\xfbb\xf6\xf1\xe0\x0f\xf5\x14\xce\xfck\xdd\xe5\x0e\xcbQ\xc7\xd5\xeb\x1b\xaa\xc5\xd8\xbf\xe1\xed\xaf\xc7\x9f\xd7\x1f\xaf\xff\xfbb\xb1\xbe\xf8\xfc\xe7\xf4\xf9\xcf\xbf\xd8\x85\xbd\x7f\xfe\xf3\xaf\x9f\xff\x1c\xdbF\xf0\xf2k\x1f\xf6?\xff\xb6\x1b\xc8\xaf\xf6_\xff\xfb\xfe5\xdf\xbc\xfc\xfb\xed\xf3\xff\xf9\xfa\xe5\xff\xf4\xfb=\xec\x1f\xfb\x89\xee^~\xf6e\x83\x87\x97\x9f\xf9q\xff\xa5\x7f\xec\x1f\xf2\xd3\xfe\xa1\xbf\x9a1Y\x97\xf6\x8b:\x95i\xff\xeb\xfa%L\xe6\xdd\xcb/>\xd2\xac\xa6\xc6Y\x8d\xfb\xb4\xfa~\x9f\xd7\x9d\x89\xcd3\x13y\xf9\xac\x17S2\xbd|\xdb\xf7/\xff\xa5\xdb\xcf\xeb\xb4Oh\xdc\xe73\xec\xf3y\xf9\xb0\x9f\xf7\xe1\xfd\xb4\xff\xfbo/\x7f>\xef\xe3\xde\xe63\x0c\xfb_\xfb\xdb>\x8f\xfb}\x9f\xc7\xd08\x01\xc6?\xf8\xbe|\xb3\x7f\xb5\xb6a5\x84\x0f\xf6\x83A3\xea~a\xd9\x9f\xf7al>v\xd8\xd7r\xd8w\x83\x95a\xabY\xa0u\xc9\xf8\xe4Ol\xcf\x0f\xfbO\xf8\xba\x0ci]\xee\xcf\xfbt\xb7\xf5X\x97\xfc\x8b\xfd\x83\xfe\xb2\xcfn]\x96\x05/\xb3\xd8X^\xe6=\xdd\xf7yw\xf7}t\xf7\xfd@N\xfb(\x17\x16\xa2\xdb\x17b]\xda\x8f\xfb\xa7\x7f\xb7\x7f\xd6\'6\xfae\xd8}\xb7\x8f{\xd9\xc7=\xef\xe3\x9e\xf6\x85ZO\xcbo\xfb@[v\xe9\xf6\xbc\xaf\xe56\xd1q\xd9\'\xd6qn\xc7\xfd\xdf\xefm\x1f8\xed\xd3\xd7\xec\xc7}\xb6\xfd>[\xce\xec\xfa\x0f/\x93\xe5\x12\xb2\xfb\x1ds\x1cF\xbb\x84:\x05\xef5\xd6u\x88\xef\xf6Ox\xcf\xe4?\xb0\xcd\x7f\xb7/\x1d\xf6/]\xec<4\x9a\x96uH\xc3>\xa49\x99\x05\xad\xf6\xf3\xfe\xcd\xdb\xc8\xee\xfbiY\xf6\xd32\xb0\xa8\xfb\x9a\xf6\x1c\xe0\xf5\x0e|\xc5\x0e\xff\xddo\xc9}\x1fz?\xb3`\xfb\xd8\xe7\xfb~:t\xa8\xef\xdc\x1b\x86\x89\xf5z\xec\xa7\xa3\xb7\xe1\xfej\xb7\xbe\xf1*\xf7\xeb!\xf9\x9b\xa67\r\xe96\xb0\x11:4\x8d\x1f<\xb0a\xab\xdd\xfd\xdb>\xc9\xaf\xf6?}9\x86\xc3e\xc1h\xac{\xfdi\x9f\xd4\x0f\xfb\xe2\xff\xb8\xff\x00{\xc5\xd5\xfeu\x1f\xb4\xf0\xe0W\x9a\xd4\x80\xe5\xee\xf7\xc9\xac\x83\xfb\xeb\xfe\x8b-\xab\xb4p\xfa\x96|\xf3\x87}6]\xba\x0b\xda\xda)o)\x93\xd1\xc9\xeb\xb8\x0c\xf2D\xcf\xfb\x87\xee\x1e\xa8K{\x82\x03\xeat\xe8\x1a-\x82\xdf!\xdf\x12\xcc\x16\x1b\xd0\xe3F\x87}\xf0r\xa2f\xa3t9\xbe\xa9\xd7vZ\xf6\xa1v\xf3>\xd6ju\xe6a\x1f\xed:l\xec\xce\xfb\xfd\xd3V\xc3\xc2\xb8\x96}\\3\x8b\xcbY\x99\xf10\xab\xf3z\x19\xea\xe8\xb6f\x1d*Fg\xe0\xee\xac7\xf1e\xd4\xa3\xbb\xfe\x9f\xf7\xef\t\x10@\xf3j[\xd0\xfb\xeaK\xbe\xae\xf3\xbf\xe1L\xd6\xf3\xf12\xffif\xfe#7h\xfb\xa9\xbf\xee\xdf\xbf:\x16\xedL\x07$\xe8t]\xf0-\x9c\xb0\xf5\x87\xd7\xfb\xb2\xde\x9c\xe0]^~\xfb\xfb\xfdg\xbfc\x1b\x82\x9b\xc1\xffvr\x8f\x07K\x82\xc3\xe9.\xda\x92y\xb5%\xdf>eW\xdej\x91\xe7R\xd1\x1eW\xeb\xbdO<\xdb\t\xcd\xb2D7\xb3\x94#2\xfai\xff9\x9d\xda\x8fu\xd7\x06\xed\xda\x0c8\x1at\xc7\xd6\xcdZ/\xd9\x9dm\xebn\x9c\xdcj\x18\x84\xe5VC\xb9^\xaa\x07\x86\x8e\xeb\xa5\x9d[\xd1\xe9:\x83\x0e\xd3\xdfO\xe3\xbew=\x06\x83i=t\x90\x05\x9en\xccl\x1d\xc9\xcf\xac\xdeO\xfb=\xf8\xd5\xae\xe8z\xa6[\x8cC\xb7\x02\xc5\xef\x9f\x1c\xc3cm.\xa0\x03\xad\x03\'o\x1f<\x97P\x03\x9dj\x00\xf6gN\xe8\x17n\xdd\xee|"f\x01\xbc\xc1A\x90\x8d\xc5L\xadk\xff\xc3>\x98\x1f\xf7?_\xd6i\xa9\x01\xee\n\x85\xf8\xae\x1e3\x85\x9b\xebE-\xc8E\xe0T\x98\xe0z\x8f_\x863\x1d<\xfc}\x1f\xe0:\x8e\x00\x84W\x17\xf4q\xff\x91pCY\xa7\xf5\xe8\x05s\xd5a\xaef\xa0\xe0:QN\xb2or\xe3\x15[V{\xf5C]\xf3;\'\x7f"R\x1b\x89\n\xec\xe0/\x00\xc5\xe5\x9e\xd6\xa2{\x8cl\xf7m_\x8c\x05{\xf5\xd8\x17cTpv\xe7\xd8\xdf1\xda#\x87\x1eX,\x835\xb1\x95\xdd\x88\xd7\xefA\xc6\xdb\x07\x05\x9b%\x1c\xb9\xee\xc5o\xac^\xc3\x9a<\xd6s\xf8\xe3\xba&!\xcc\x03\xd9\x11\x06\x0c\xb8\xad\xb1\xf1Fu\xd9\x90\t\x00\x12\xc4\xac\x1b\xfb\x91\xc1\x12\xdc}\xe2\x1c\xae\'\x19p0\xedS\x16>}\xde\xffa?\xd2\xb7}\'\xc7\x12A\xc2\xecd\x19\xe6x\x8db\x88\xde6\xdb\x05\x0e\x08H\xb5D`?2\xde>\x0fs&\xba\xd6\xa1]\x88G\xb9\xef\x9cY\xbcJ\xe3\xfe\xf4\xeb\xfe\xfc\\\xcd\x12 n\xb5\x86>\xb1FC\xd5a\xb3A\x19l\xcfk\xe1\xcc}\x9f\xf4\x82E\xd3Me/V\xc0\xf6S\x1d"wh\xb53\x17\x86&\x0f\xb8\xba\x0c\xc2^|\xe0\xd7\xfb\x18\xbe\xe5\x94:\xacdL\xdc\x11\xc5\x03\xcf\xfb\xff\xd9\x19\xe7\xf2\xa7x\\pxD\xbd\x13\xab\xeaT\xcd{;6\xba\xf0\xe5\x15\x00,\x88\xc6\xfa\x89\x03\xe8\xd3\x98\xa7\x12\xfd5!\x18G\x9d\x88\x1dx\xd6\xc8\x1a\xcd\xeb\x89\xf9E\xdbA\xa8\xc6\x8dh\xc5#\xb0O\xc4\xbb\x19\x8fpW\x15J\x96\x18\xa2q\x01d\x91\x9e\xf7\xff\xb3G%\xc0z9<\x01\xe4\xb6\x01BG\x08z\xcci\x80\xf9 \x13"sVp4S9\ty\xdf\x8a \x9c\x1f\xcbsd\xd4v\xdf\x93\x0e`\x97#\xe9\x8e\xf5\xe6\xe4\xcd\xfb4\xe5v\x93\xb5\x1a\xf0\xba\xfd\xe1\xc4\xe1dGH\xa2nf\xf2\x1c\xba\x9eS\xc7j\x00\x83\xc7\xfd0\t=6\x1e\x9f9\xf1\x88\xd8-\xa6\xc3\xb1\xf2\xe0+\x9b\x9d5\xd6\x8a\xfc\x9d\xd8\xc7\xca\x9b9/\xd1\x89r\xd5\x0f\xfaz\x86\xa8c\x1f\x80\x00k\x89$\x164\xc5 \x12\x8be]\xf6e\xc5"\xae\xffa[\xd6t\x07@.\xf7\xb4\xa8\x8d\x8b8-\x95\xac#4\xf8\xf3S\x8dC\xc53\x8e\x91\xebb\xee\xc4U\x02\xde\xfb\xcf\x13)0\xdcD?)\x1c\xb3\x9b\xfd\xce\xbf.rB\x03Q\xefh?w%\xf2\x91K\xde\x87\xd9\x01\x94Dj\xb1\xe2B\x8b\x87x\xae\xf28n\xe7\x87\x1b\x84\x0eHW\xe7b\x03V_\xee\xff\x14\xa0.\x1eR\xe8N,,w\xee`\xedW\xb4\xbe\x12\xd6\x8c\xb9\x13\xa6\x83\xc6\xe98&\xcbc\x1f\xf5@ \xd3)\x8e\x01\xe2\x12\xc7\xcc\x17\xaf\xdd-\x91?\x1d\x9e\x0e7\x00!1\x83oA\xb7$\x00\xb0\xab\x83\\\xdd\x98,\x8e\xae\xec\x81\xae\x878\x99Kb}8qD$\\\x8cG9GG\x8d>\xe0~\xab\\\xd1\x8a\xd0"!#\xd6\xb4TW\xb3\xde\x9b\xc8[\xac\x181\xb8H\xc5\xb5\xc4X\xf74\xbe\xbe\xc6\xfa\xf8\xd8`~\x060\xd0T"\x9e\xe0\x8c\x89\x1f,\xd5\x0c\xfa\xc9\xc2\x98\xcf\x8a\xf6\t\x1a&\xa8\x1e\x91\x1bZ\\\xe2>\x85\n\x03\xeb\x0c\n\x05K\xbc\xfc\xf9\xcbS{&jH\x9cA\xa9I#\xa2\xde\x0b\xd8\xa2\xaf\xa1\xf6zy\xef5\x16\x86\xff\xfa\x9aK]\xc3\xd6\xf9\xda\x97\x0c66O\xa1\x88.\x89\xc1\xe0\xea\x00\xdf\xed;\xf5\xe1\xa9\x06p2\xff`|\xaef_#\xa7?\xa75\xb8\x00crf\x07\xfbq/)\xb1#\xd67F>\xd3\xb5Ua\xc7\xb8\xdcr\t\x01\xcco\xf1\xc6\x07\x9b\xbda|\x8e\xad{\x9a\xbe\xe2\xec\x80\xe9\xda\x065\x95\x8a\xdc\x18\x94\'8Ar\xce|}|\xaa,\x823_\xff\xd8\xff\xfb\xcf\x8c\xaaB\xce\x8b\x07H\x8c\x9c\x9f\xa0\x95vxK\x808L\xcf\x11\xe1\xc4\x14\xf2\xea\x0b\x89P\x9cV\xe4\x98\x8a\xcd\xc6Iu\xac\xde\\"_4\xb9\xfb_\xe9\x87\xcc\x97*\xfc\xc6\xbdv\x95\xa5\xd7\xda\x82\xeb\xe1\x1cV\x1f\xf8\xcbS\xc5\xcfC\xe3\xfdL\x00\xd1\x0c\xa1\xaeg]\x15\x18\xaa\xb9\xed\xc3\x1f\xa5\xa2L\xcc\xaa# \x05\xb3\x1c\x15\xe5P"\xaeT\x94\xd2\x0b\x9f\x03\xd0\x1f\xe5\x12\xca\x01TM\xa5F+g\xb0S\x19\x14\xc8\x86\x99\x15aS\x86Q9\xd2\x9c\xdc]\x0f\x83\xfb\xa9G\x04\x90\xf7\xfd\xda\xcaQ\x88Mx\xcb#=&\x80\x88w\x84R\xbd\xf3\xa58\xc7\x8b\x80\xd1#\xa1\x90w\xc7[\xb3t\x13\xc9\x90\xca\xa6q\x8a\xb5b\xa5"r?\xc4\x06(\xf9\xe7?\xf3\x01\xd8E-\xdc\x06\xb7\xfef\xff\xb9O9\xacR\xe1\xcf\x01I[\x02\x89K\x1f\xf1\xc9 z\xf6\xd1\xb6@\x80\x0b\x1c\xa9.>\x00\xa8\x9e\x93\x88c\xd8\xa1\xa1D_v1a(\xeaz_\xc3.\xcb\x18\x84\xf4\x0f9\xf3\x1eT3s\xda9\xabJ\xd9t\x9c\xfa\x1e\xfe\x13\x8f\xdc\x11\xa4>"\\\x11\xbbs\xed\x9c9\xba\xf9\x86m\xf9tX,w\xfcW\x888?J\xc0\xeb3\x1b%B%\x02\x96\xf9\x9e\xbe\x7f\xc0\xe8\xcdR\xcfH\x06T,\xfb\xb0\xaeT\x02/:y9\xc9J\x94\xd0(\x92p\xc4\xedd\x85<8W\xf3er\xa4{\x02\xab8k\x9bo\xc5\xb0v\x95\xc1\xe9\xa3"1\xaah\xa5"\x91\xe0GK\xa4\x03\xae`\x00\xc7\xe5@\x8f\xb1D\xf6K\x01\\Dg\x9b>\xac\xfa\x93\xdf\xe3*+;\xcc\xa8\x88E\x11~t\xaf\xacg\xa6\x1dA\x8f\xca\x07w\xa2H\x85w\xf1\x1f\xb3\xf2hDc\xbd\x92R\xa5\xe2z\'}\x1a]zw\x8b>} \xf8\xec\x08\x87p\x9a\x179\xbe\x8e\xf9O\\\x96\xde7\xe6\xeb\xfd\x93W\x1bG\xaa\tp\xe3\xb6\xd7\xd3\xa2\x9ak\x04\x1a\xbd\xc6\x9cl\xe1\xd4\xb8\x08\xa0Fi%l\xcbB\xfeV<\x1db(\x11\xeb\xf0\x03\xeb\xb2\x91\xe89C\'%\xc6\xf6\xa4\xd8\xd79\xe4\x98>+\x1e\xfc\xf8\xc8Q(3[\x0c|\x84`\xf3\xa0\xdf\xf0\xf5\xf4\xa4T\xc7\xa0\x87r-\xe31G\x85\xda\xc0\x15&\xb5\x83\x13]\x80\xc4\xbd,/\x81\x84\x88/\xa0\x82\x92Q\x80c\xc1-\\\x11\x04\x8ev\xc5-\x94\xdf#\xd2\xd1=\x0ce\xc75\xc2/\xcd\x19\\TS\xd6\xb6\x04c\x1f\xf9\xbc\x1e{\x81#\x93\x86\xa4Usy\xe3"\x01?\x95\xc2\xdf\xd7A\xaa\n\x94%CV\x18r\x8fz\xe5\xba \x17\x86\xa4^\x93\x840\x9dB\xa5\x9e\xaa\xcc\xa3T\xd7\xd7\x92\xc0-)\xa2)1\xc5\xf2\xfaE\xdawh\x8e\xc0\xf4\xb1\x9f,<i\x90<\xae@\x81\xa1gD#\xc5j\xdb\xc0\xc5%`\xadFb\xb0G\xce\n\xf5\xc4\xfb\x83rY\xb0\xc7XeO!\xfe\x1d\xabPEl\xbd\xfb\xbc@k\xddJ\x8d!\xaf\x12\xb3\x99\xa3\xf8\x96\x13\xe0gCXM\n\x8dbF\xd6X\xc9\x1c\x12TV\xb6qh`\x9d\x0e\xd3\x86"\rq\xb4;l\x17J\n\x81p\x9fE\x9fI\xdd\x95\xb0\xbbb\xa4\x9c\x91\xb9 \xe3&\xb2\xfb\x96\xc9\xbb*X\xa64\xd1\x97w\xb2\x1a\xd9\xf2\xady\x9cK\x1b\x98%o${u \x15"d\xa5n\xc7\xa5"cT\x8dZ\x8cR\xeex\xa3#\t\xda\xdd8y\x137\xab\x93Q\x90i\x9a\xa5\xac%%#e\x89\x14p#Gp8J\xe0t\x93 \xdc\'b\x08\x99,\xc2\xbf\x1e\x12c\xfdv\x0f!$3n\xb4\xac\x8f%FP,BN,\x0b\xe1a\xb9I,#\xa7q\xa4\xdch\n\x1d\xf6\xc8a\x03\xfb\xb8\x9a\xc2\xd5n\x0b\x9d\xf1\xe8b\xac$A\xf8,%\x08\xbc\xd9\x9dx}&\x90\x1ag\x9bE8h\xbd`\x8f\xf6Pi\x03\xc9\x83\x88\xd7u\xe8\xb6\x83\xe2\xc3\xbf\xb3\x87\xcbP\xa2-\xdf~\xf6g\xbe+\xd0\x1f\x9d\xc2\xf8\xc6\x9b\xd2oJ\xe0\x8d\x93\xc6\xd0\xaf\xf9\xd1(\xd3\x92\xb6\xa1S\xd6\xa8\xdd\x088\xef\xfa8\xa8\xb8\xb8pp\x152\n\xcc7\x89\xb8\xd8\xa7A\xd7\x8d\xb36*\x87\xac\xdb&\x86\xf5\x00\x04F\xb4\x16K\xbekR&\x8fB\xac`\x82\xf5\xf6\xbapIa\xfb\xc2~I\xadG\x86yST\xfd\xcc?\xfd\xb4\xff\x93#\xc4V\x83z\x7f\xd4P\xd8\xd3}\x8b\xd6D\xd7\x8f5y\x88k\x12*\xb9\xc9\x04)\x12\x97(\xa8\x97\x02\x05\xc1\xfd\x00Rz\x10\x80\x8aO\x9d\x95\xf3\xbb\xb1.\x02\x8dJ\xfeuZ\x98N\x00J\nM\xe5i:\x89\x11\x04\xf9\xc1\x8e\x8d\xb2\xabi\xe9\xa2\xa2+\xd3\x14\xe4\xfb\xfaF\x14\xe0\xd0\xc7Iy\x10\xa3\xee.s\xc6a\x90\xee\x84\xbf\x10+_v\xaa-\x86\xcaC\xae-`\xebf\x9c\x87\x13,!8\xc6\x86v7R\x95\x0c\x16?\xa7t\x9a[\x9c\x00\xbb\x14\xd7`\'\x19\xf6\x03\xb5\x9d\x97F8\xc7\xda\x88\x01\xfbG$,:\xe6{\xe0\x91\x9c\x0e\xf5y\x8e\x84\x94\xf2\x8fiK\x90,p_\x1d\xea\xf8\xceH\xb7&^\xa8\xc4\x18\xcey\x80\x96#\x12\x05`So3[w\x90T;\xce\xaf\xf1,+\x0f\xfb\x00C\ri\x86\x1d\xea4]4\xc232\x9ds\xe4\x83\x90\xber\xc8\xc4\xc8\x9e\r\xd1\x17\x9fH\xd2\xa5i\xae\xf3\xec\x08$\xf1\xc8bb\xb0\x91\xca9\xc8\x128JvA~\xabO\xd9\xc0G\x95z\x8d\x82`\xe9H\xb5V\xad\xd8\\3#\xc9e\t\x12\xaf\x98_\x03\xd4g\xc5\x99\xa4\x8a\xf8\xccF\xcb3z\n\x17\x05\xf4Y\xb5\xc9X*\x08\xf2s\xae\x8cI\xa9\xc0\xddo0\xf4\xd6\x9b*\xbe\xee\xd3\xa6\xf8\xaa\x0cF\xcd>\x06\x85\xedl\x9b\x134\xd7s\x89q\x86\xd8\xaf.\xfbj.~\x8f\xab\x9e2\x1e\xbc\xb3w\x9c\xbe\x81\xf8r\x14\xc4))\xb3WE(\xd8\x81G\x89\xd9\x91V)\xe2=\xf2\x81J\xfc\x94\x1a\xb3y\x1c\xafb\xc0\xf3\xdc\x9f\x12\xb2\xeez\\A9%zl\xc4\x0e\xe9>H\x9aZ\xa2,C\xda\x1f\x01\xd9\xbc\xe4\xf0\x8dR\xe1\x0b\x81\xeb\xf4)c\x97k\x19\x94\xc1\xab\xd2\xd9\\\xd0V\x13\x91D$\x9dJD\xd3\xe27&\x81\xb6\x02\xc8z\n\xbb,\x8d\xee.\x92\xb1bop\xb7\xae\x08\xf5k(9\xdc>\x81)\xa9\xd3\x84S9\xe0b\xe9J\xb4\xf2\x00,\xc8vE\xea\x91pB\x8e\xef"`\x8e\xd9J\x0f%\xbd\x9ar\xba9\xdd\xd5eMTV\xff\x12\xa4\x89=T\xea1[\xfd\x81J\x07\x80\xc6\xd1\xf7\xe2|\x15\x94"\x86\x12\xf4+\xd7\x00\xc6\x1cy\xa0Z{v\x91m\xcf\xf5p\x1d\xb4\x0e\'r\x8al\x0e\x86\xac\xd1\xac\xe7]\x87\x99\x81\x12\x13\xd1hW\xe4\xa4.P5v\x9e\xda\t\xe9:\x86\xaf\x0f\x8c\xf4\x8a\x00\xe7\xf4\xda\x07Q\xd4\x01\xce\xea\xf2\'#\xa0\\R!\x1c+?\xf8\\\xbf\xb2\xdf|U<\x1d\xd9\x04|\x06\x04\xa5\x12\xc1\xe5\xe8P\xa1)\xcf\xd2DZ\x92\xc0?2\x90\x95\x87\xc4w\x8a\xe8\xc7O,\xaa(\xc7VIu@\xb0"S5%S\xd5\x985\x1c\xb2\xbcL\x94\x9bO\x90\xa4\nZ\xdc\xef8\x13\xb5hKW*F\xed\xf8\x9d\\\xa4\xe5\x8b\x10\x8a\xb4b\xa8\xdd\xe1G8(\x9e\xf1mR\xcf\x95\xa4\xd5\xc1\xa9dC\xa7\x86\x01\x07\xc4^b\xb2\xa5S\rgL\n\x8f\xf9,\xcf*\xbb,\x15\\\\\x90\xab\xccb\nKD\xde\xc3!\xbf\xc8\xe2y\xbcwZ\xf9\x92R\xcf\x07`\x04&g\xc8\xc4{T\xac0$\xc9\x9a\x1d\xff)\x14\ruU%\x06\x07\x00\xed\x14\x82^\xddWn7\x1c\xb4\xe3S\xe2/O\xbf\xf7)e\xcd\xb9T\xde\x81\xcf\xf3\x9a\x0b\xd5\xbb\xa8OK\x95\xe1\xbd\xfcb\x90\xe1\xed?\xdf\xc7\xa0G+l\xe6\x80\xe4\xfei@].\xa5e\x86\\\x99\xc8~pz\x95\xc7\xcc5 v\x1f\xaf\xcaG\xdfN\x7f\xb7\xe5\xe8+>\x89D.\xa8\xa9\x96F\xe6\xe4\xaa`:F>\x93\x0f"<\x07\xae\xf7\x94;\x1d\xd4b\xed#\xcdY"Y&\xfa\xa4\\S\x86\x8f\x11\x8b\x83\xc1\xc5{\x1c\xeb,<\x84\x87\x05b\x8b9\x99\xae\x83\x90\xe9\xac\x10\x1c\xcb\x89\xaf\x1e\xec\xe3\xbe\xdc\x0fp\xeew\xe2\xf0\xdbY\xf1P\xec\xc20\xc8\x02,\xa0\x87\x89;/\xd3Y\xc5\x8c\xa2Ru\x1e\xdd6\xb5\x9c\xbc\xd4=\x85\xe9\xe0\x96R\x1d\x86\xcb\xa8\xae\x94\\)\xc9avM\x9d\xbd\xde\xeb\xf6\x03\x1etd\x12\xce-)\r\xe8\xa3E\xc1H9\xeb\x85\xeb\x9e\xcd\xef(\x00\xc7\x1e\x0cy\x0f\xdc\xeeza2$\r\x81xB\xb0\xc3T\xce\xf9\x0c]\xc6L\tr\x173\x10\xca\xd9@y\x0cW\x8b\x04>\xb0DHp/P\xb5\xe5\xd8y\xe4B\xc5\xc2pO\x99P3\xb9?\xda\x84L@\xc8\tr\x0b\xddz\xa2J\xe2\xf9"\x02&\xff\x8d\xfb\xb8\xdb`\xbe\xb5\xc9\x8f\x11\xde\x8e\x99\xdf;\xd6K\xd4\xc2\xfeR\x81K\xd0[\x1e\xd3fA<\x8f\xef\'q\x91\x81tf\xa3\xa5(TnZ\xe1\x04@E\xde\x08\x830\x81l\xd9\xdc\xa0\xb7\xf9\xe9\xa9\x06<T\xe1\\\xd2A\x19\x9eU\x17\x0c\xaeJ\x0e\xff\x11S\x0f\xa9+@\xa9H\x88\x00y\xda\xff\x9c\xf7?\x1f\xb6\xca\xfdQ\xa1x&\x04h\xa5uK,\xd1\xcbt[VT\x05TeBEi\xb7\xc1\xdf\xa3d\x9f\\?\xd6c\x8e\xd8\x10\xe0\x92)\xf2\x89\xfb\x0f\x82i\xd5\xc1p}r^\x80\x01\x1dH[Q7\xf8I\xce\x8a4\xa7\xe4g\x92\xf2\xcf\xb9\xae+\xcdiJB~B\x06~\x85k}\xc6\xcb\xef\xc1\xbd"\xb0c"\n\x9a+5\xef\xf6C\x02\xe4_\x83\x99\xc9\xc5\xf2\x17$o9\x9cQ\x16\xac\xa4\\\xb4\xef\xf6/O\xee\xcf4\xc5\x8a\x12\x9d\xfd\x95\xb6\xfa\xcd\x1a\xf8\xcd\xc3sd\x93\xa2\xf3\xe4\xe49\xc7\xe1\x0c\x91\x07\xa6.\xb0\xc8\xf6\t\xc7#\x03\xc9A{\xf9\x0f.\x84\xe5\x9c\r\xe4\xa1j\xfet\xdfx9M\x88A\xbcg+\x88\xa9@\xf0\x03\xab\xbd\x01\xbf\x13\x00\x97a0&$S\xfa\x179\xc4\\Y\xe9\x0c\xcb\xd7\xdc\xbf\x8fv\xff\xf0\xc7\xb3J\x17\x8a)\xd8\xad\xcd[\x89.,\x95\xb6\x8a\xe9\xbb\xc8}\xd6T\x84t\xc6\xa5j\xa2D\x92\x9d\xe9\xe5T9\x13x\xaccK5\xb1O\\\xbe\xc6\xed\xf4%\x0cJ>n!I\xfb\x81\x14Yn\x13\xa3P\x03w\xa7\xd0"\t\xcb|M7\x08\xa3\xc8!B\x95\x93\xda\x06\xc7\x16N\xce\xa6Z\x87Z\x9f\x8bRA\x19\x8d\xc5\x86{\x02!<\x88=\xb3e\x17\x96\xd3O\xe2\xe9\x85\r\x9a7U\xf3\x96#2|\xb9\x9eFn\x9d\x8d\xab\x158&N\xaa\x1c\xa9\xa8l\x7fB\xf5b\xa9n\xe4\xa4\x98\xa0\x1b!]\x1e\x84fb\xd5AT\xe8]U\xf8u,!\xc0B^\xf0\x1d\xce\xc5ycCWu\xe5\x0e\x1f\xaa\xed\x8b\xd4\xcd\x1f\x808\xa1\xc6/P\x16\xb6^b.~\xd2&\x86\xd3\xbb\xf9\xcf\x8f\xf6\x9f\x1b\xe1H\xca\x9f\xbem\x1ar\xf3k\xd5\xce\xa4z\xf0J\x9f\xe7R\xe5\xaa\x1ar\xe2-\x14\x8d*\xac\x82\xf1R\xca@](:P\xa2D\x08\xc3\xa1o\x82\xb8\x07y\xfe}O\xa9\xa6\xc8QC\xf6x\x8dglJMm\x15\xc0x\x11\x81\xa4&\x17.%\xd9Buy\x1cz\x15\xcbw^\xc3\xe1\xf0Y\xe8H\xda\x85R\xa3\xe4\xbf\xd8*\xf4:|\x85ff\x89\xa4\xa18T{\xd85\x9e</Rpk\x07\x0e\xc6g`\xec\x84~#:\xe8\xa0\x89:\xd9#-e\xa1}\x16\xf6\x80\x18Vm~J\xc5u_\xed\x8b\xe9u\xabj\x14\xba5\x9c[]X\xce\xa8\x8e\xdc\xd3\xbb\xbcCH\xa7y\x8f\x01u\xc9\xba\xc8\x9c-VD)\x8e\xfdL\xe39HC"t\x88\xcc^\x19\x00Ubd\x1d\x89f\x1d PPG\xd2UA\x9c\x1b\x81\xac*\x11J\xec\xae\x00R\x9c\xca\xb5\xf0\xf5\x91\x12\xb6\x99I\xf2Ry\x19\x8a+\xaam\xd0\xf2\x90\x95L\xf9\xaeH\xaf%w \xf9\xc2>\xe7^\x95W\xd8\x8a\x88\xf8<\x06\x96\x08\xfe=w\xd6\xd9\xfb\x0bw\xde=+\xbb\x81\x83\x12\xb7U\xcd/\x8e\xfaB\xe1Y/b\xc8\xb3\xb1g\x8e\x91\xef\x93\x8d\x8c\xa0\x8d\xc0E\xbd^J\xc53\xab\xe3\x8b|T?\xa5\xf5R\xbd\xf3U\xbc\xa2\t\x081\x93\xbfA\x11\x0c\x99\x0b\xdd)\xe3\xf3HK\x9a\xb3_\xdcl!\xc1b\x8doc\xd5\xed\x85\x9aq(&O\xce\x9d\xda\xed\xf2\n\xd0/\xa7$\x9bz\x8d\xe5\xdb\xa3\x9e\xc2\x8e\x98\x9c\xe4\x1br\x94\xe4\xd846\x1b\xe3,b*^~\xd2+\xfbYQ,\x06\xb7\'wL8\xd0t\xd7Le\x9f:\xabL\xb9-\x9f\xbalL\xf8\x075#\x86\xe9\x03w\xceR\xc6\xab\xb7bI}&!\xfd\x06\xf5h:\x96/\xb0I\x99,W\xed\xe3\x94\xa7N\x9c6`6\x9bO|\x0cH\xb8I\x00-\x87\xea\xde@\x00\x91\x89\xdb\xa13\x9b\x88;T\xa5\x1aS\x05W\xa9\xdaW\xe5\xee8E\xa5dI\x1b\xa3e\x85\xc5j\xf4\x0c\x1b{m\xc4f\x87y\x1d\x11\xfd\t\x00tj\xac\x7f\x07U\xf5\x1ds%\x1a\x94\xa4\xb5\xf6\x0bg\x97eg\x05\x03\x84(\x89\xc5\xd4\xc0\x02X\x80-~\xd4\x9cO:\xe8\x03Q\x9a\xc8\xca\x12)\xde\xaeU\xc5r\x9b\xa3\xf6\x00\xf3\xe1\x91\xc8\xba\xf6]\xe4tI\x89a\x0eDIdC\xdb\xaa\x92\xb4\xef=\xd3~\xe4\xe4\xacK(B\x13\x15\xec\x99\x92\xcd\xa2\xff\x8b\xc5@\xd6\x8fGj{\xc1P\xf6~\x12\x12\xe2v\x03\x86\x05\xfe\xd8\xf8\xbb\x00\xf3!\x96\xc0/\xa8\xd4g@h\x8f\xa8\x8a&9\xa3$g\x9d\x8dyc\xcdp\x16\xd48;\n\xfc\x03Z\x95\xae{\xc4\xd0y\xc6\xc6!\xbd\x10UH\x9e\x8dj\x19\xbd\xa4\xc0\x96\xe9\x05\t\x1d\xfe,\xd8a\xd3\x82k\xf4RGa@X\x08\xf8i\xce\xb9\x8a\x07iaE\xb1Ek\x8cja\xfe\x05\xfc\x82\xcb\xe2\xf4yX\x1f\x80;\xf7/\xc7\xf3R\xc7\x1fP\xb6\xc2\xd3\xc6\t\xe0P\xf0\'\xf7\xd7\xdci\x0e\x82\xfa./\xb6\n\xca\xf21\x1bq\xa0\x99B\x1bR\x9b\x82L\x83\tTD\x9e^\xd2\x90\xb1\xd1\n0\xc9jG\xcb\xb1\xeb%\xc4\x86\xd6\xbbJD\x0e\xcf\xbb\\m\xc7\xa93]\xa2(\xd4)\x11e\xb8\xaad=gv.\xa4\xa6\xb2R\xe5l+\xcf2\x11\xe2,\xad3\xd4d\xa3\xf6\xe1\xa8\xfbq\xa3q\x80)\xf1\x9c\x85Gy>>Px\xee\xf1\xba\x16\xfb\xbc%\x154u\x9b"\xbd\xf6G\xfc}\xcb"\xbe\xfcG\xa3\x86\x08\xe6\xa5\xdf\x07\xac\xcd\x12(\x11\xd8b\xc9\xa4\xa8\x93\x84\x97\x04-n\\"\x98\x05\x13p\xf7\xc8i\xf5@\xab\xbb\x0ez-akB\x80aP\x80/\xe4v\xac\xffSj\xe4\xb1\xafckd\xba\x15\xe7|\x11\xd7Bq:\xb8Q\x12\x8fJ\xc1(\xcd\x97\x13A~\xf2r9\x9f\x9c\xe9\x89V=+e\xea=\x14\x91RR\x192\x87\x8c\xb8J\xdc/\xde\xa3\xabYq\t\x0c\xd5{\x9c\xab\xa1\x02\x01\xd0c/+G\n\n^\xa1.8\xa2\xa4{\xb9\xc60$\x1d\x8d$\xe1\x9c\xa7\xbc\x8a\x0eV\x88b\x95t\xadL\x85\xaay\xcc\x18\x9d\x15\x81\xbbB\xfd\xa4\x01*\xb7\xdf\xa1U\x90i\x16c\xc3*\xc3\xaa\x0bD\xb4\x03\x12\xa8\xda1\xee\x0fp\x88S3\x96\x08\x04\xe8t\xd0\xf3\xd5\x8b\xd2 \xc0\xfe\xe9\xb5\x18O)\xe3!\xab\x0c\xd4I\x00,@\x84\xd3\x1a\xde-\xd5\x8cx\x17@\xcd\xb3\xd48}\xdd\xb5\xc8-\xe8\xae\xdc\xd2\xac%\xe4\xf49\x1ed\xd15\xb0\xf7;\x89\xd3\x80\x0f8i\x03:\xa1s9$\tZk*\x8b\x15\xe2\xe4\x02;\x82Iq/\xd6\xb8+}\x9f\x10a\xa3U\xe2{3W\x98\xbd\x88\x1a>\xdb~\x1f\x9a\xda\xd5\xc0t\xcc\xcb\xe1D\xc9:<\x10\xab\xdcb>\xa7\xf8\xdd\x8cW\x17\x15")o&*9\xd7\xc1\xe9q\'Qy.\x0b[\xc7\xaf\xf6\xb0\x19V\xb5\x12\x8e\xe9\xad\x13\xa1\xcaG\x9e\xbazc(1\x9cC\xd5#uK\xc0r\xa0n9\xff\x10\xb6Jb\xeb\\\xe7\xc6$:\xc1\xaa\xffm\x9b\xe0#\xc6\x96\xa8@\x1c\x8c\xe5\xc6\x99\x81<-\x96\r\xac\x91\x9d3\x17\x17\xca\x07\x01?\xaa\x9d\xca(\xcc\x93j1H\x8b!Um\xb9\xd1X\xbe\xaft\x06\xe6R\xf2\x19\x05\xb5\xe9+\x95\x8c\xbf\xbd\xa6F/\xb1Y!\xd91\xb5}$9&QS\xba\x1a\xe2/\xd4\x97\xbdf\xc2J\xb4\xdc\xc2\xe6\xf8\xa5\xc9UF\x99\xc9\x0fm\n\x1b\xd7\'\x06Wz\x9e)\x80\xfd+\x8aw\xe0^\xf6\x8c\xeaZ\x9bvZ\x07\xcd\r\xa5\xbdj\x81G\xe0\x00\xbb4\xe1,<*\x11.t\xd9\x83`\t\xbb\x93(\xc7E\x02\xc8X\xa0)\x9a\xedJ\xa9\xf1\xc7\x99\xec\x07\xd4\x0bC\xe9*\x02\xdfq\x02\xca|!\x95W;J\xa1\\0\xff\xa6m;\x87\xee\xf1\x1c\x1dv\xcc\xa0\x80L\xc7\xb4v\xe2x\x1cu\xd1\xc7\xf9\xfc\xe5?\xa9n\x01\x9f\xc2.\xca\xa2\x80]\xd4\xeb\x14\x13\tu)\xe2\x80\xbbpI\xc3\xbdA}\x17\xc0g\xf1Z\x02\xfaR\x9f\x95#\x8f\xacv\x84\x96\x19\xcd\xbe_\xf4\xdeX.\xe9#F)\x9a\\\x13\xef(@:lh2\xe5\x0b\x87\x92D\xcd\x0c\xfe\x8e\x19\x84\x05\x95\x7fME\xa3\xae\xcb\x95\xde\xe1\xf8\xd0\x80\x9fKF\x10\xc2\xedr\xc0\xd9\xdc\x1e\xbe\xe5D\xc0\x8e\x1b\xca\x1cAOHD\xe2\xc49\x07\x8f\xbe\x1d\xa5\x84wI\x89<U\xf5\x86\xdd\x12s\x9eS\xaa\x92\x9d\x94\x98 it\x8d\x93!g\xb5H\xb8\xe0Z=7u\x96\x93R\x1f\x84\xec\xef\x80T\xb0\x9f\xa9t\xd3\xef2W7\xd7\'\xba\xdan\x88@|.\xc7@\x89\xc8>\x14\xd4\x15\x0b\xd7\xac?\xbfoX\xce\xa9\xb6\x98\xe1\x13\xedX\xc0\xdb\xad\xd1\x7f\xa9^\xcd;u\xb9\x043\xe1h\'|YD\xb4\x90\xad\x86\xc8\x17=wg|o\xc3Q\x9a\x0b/"N\x0fH\xadB3\x05\xb6C\x89\xa1\xbb\x00&\xe5D\xa3\xb8\x92\x08\x91\x95\x9d\xbc(\x85a+\x97\xb4v}D\xa8n1B9a\xb1\xe7\xa7M\xe6\xe6\xd2\x83 Rj\x1c\x15k\x0c`q\xc1\x8b\n\x158\xe9g\xef%s\xd1a\xe6\x0e\xc2\xb9R\x99\xc2u3\x9dsPc\xa7O\\\xbd\x8a4!\t.\xe8\x123\xb3\x98\x15\xec\x1f\xb1\x04n\xf4%\xb2\xd2Cr%*\xd8{\x9fY|X \xbf\x1bu\xd6\x92\xb6\x96\xd2DL\xe7\xae#\x1be\x0e\xb1\x9a6\xd4\x92F|\x02\xfb\x11<O\xec\xeb{\x81/\x9ep\x92\x188\'\x84\x93\xe6\xfc E\x7f3\xady\xbf\xf5\xfa\xaf\xf63\xc6\xe3\x93?\xd4\xeb\xd5q\x84\xa2\xf90C\xfc\xe57R\xbb^\x8f\x0e\x96\x8a;\xd7v \x99\xf5\xd3\xf1\x97@\xd4CR\xcf\x975S\xa9\x15^\x05uD\x85S\x9c\x86\\\xe1rV?\xe8\xd4\x8d\'\xcfu\x1as\xda\xf3B\xacz\xd6jBb\xe9|\x8dz\xe5~\\\xcf}\xf6\x06u\x97\xb8M7\x84\x11\xfb\xe8?\x1b\x87\x08\xda\xc6\x979\xc7u\xe1\x01\xea\xce\xaf\x9d\xcb\xc3I\xaa\xaaYI\x9a\xcd\x10)>\xaec\x96\t\x95\xea\xd8\x1d\x1f^\x11\xbe\xbe\xd5\xb5zDP\x91\x874T\x90\xf0!\x8d\xbcu\xa4V\xa7\x96\xdf\xd2\x16=\xdfJ\xd8p\\o.\xfb8{\xe4D\x9aG\xde\xfb\xd1U\xed\xd5\x82\x98\xb0\xd1Y\x8dpg\x17\xb7\xed\x1f\x0f\xb7\xcf\x91\xf57\xed\x8b\x92\xda+p\xc5\xcdw\xb7\xaelu\xa4\\\xbcFw8\xc3\xc3 \xdb\xc9\xaf\xf1\x90\xc4R\xfa\xa4\x91\xe2puj\xa8i\x87w\x97\x94*\x16b\x05?\xb59\x12\x9c+f\xf0\xddS\x00\xd0\xabs}\x8e\x877\xd6e\xce9\x91\xa0 r\xae]\x0cKr\xcb\xf0P4\xc4U\x13Ue\xe28i\x93\x83\xaf\xf5\xa8u\xb8\x07"Gx\x8a\x87\x88\x8a\x01\x18\xa1v S6\x84RX\xa8m\x14\xc7\xb0Y\\\x93\x1aG\x89\xb1\xf6LC|\xa7\x18\x00\xe9=\xa2B\xbf\xb6[\xbegg\xb9%\xef\xd8\x93#}\xe7\xb0$451\xb66\xa9QI\xe2\xde<p\x96>\xa0C0\xaa(\xcc\xb8\x06\x8e\xc9\x81k\x18\x08IZ%\x90\x9c"i%J\x8c\xa0\x19\xebH:\n72)b\xac$\xc3\x81\xe4v]\xf2\xd9;\xce\xa9\xf3\xbb\xaa\x8aK\x85\xd8\xa1\x83m%#2\xa4\xa0\xca\xf0\xe0\x08\xacM\xb9}:\xb1\xaa\x97v\x8c\xd11\x13\x88,Y\xceW\x13\xb4\x1dg\xb15\x9d\xe6*\x86 \x03\xca\x80\x0e\xf4\xdaI\x03\xc7\x19\xa9O|@]\x8c,\xf7\xcc2\x9bK?\xcbnf\x96\xfe@\x91G\xd7\xef\xd4)\xf1a\x8eb\x9d\x03x%\x87\xe7<\xfb\xbb\xf41\x1c\xac\x93\xa6M#M\x06\xc1EC\xe3b\x8b*V\x87b\xae\x9b\x971+\xca\xb7jw\xbf\xd6p0^\x06\xcd:\xa5\xb7t:\x9b`\xae\xa9\r%\x01\x8c\x07y\xb4\x17\xa5\x04\x83\x05\xbf\'1|\xd7K|\xaeC\xafK\xa7[\xe79\x84\xd3\xa4}\xe3\n\xa6&M\xde\xc2\xddkh\xa4v+Q\xa6\xd0\x08\r\x0f\xe1\xb3\xef\xca\xa6\xb6T\x9c`\xb4\x82\xafv\xa8\x88\xb9X\xe8\x99\xfb\xff=lv\xde\xdd\x13\xc7(\x81Jn\xcfl6\xebJeD\x16\x02\xe4\xe5\xf0[\x15\xca\xd0#\x9a\x82\xc5i%\xd2\xfcr0=\xc2\xc4\xe0\xf3\xfc\xeb^\xef1\xdc\x93\xe8\xce\x14\xd7\xe1\xadu\xd6U\x9d\x11\x88T\xfb\\\x18]_\x1e\x01\xc2+}\x88_I%\xf8\xa2\x01\x93\xa5\xcaL\x84>\xf8H`\x84d\x8b\xfd\xb8^\x1a\xaa\xc4\xc5YD+\xb7S\x89\x8b\\\xee\xeb}g/\xe4X\xb9u\x8e\xdcs\x02,\x97Mz\x98w\x92Xz\xf3\xda\xfa\xee\xb1%\x94\xaa-M5\x88\xa3j\x10\xdd\xa9\xac\xc0E\xdeE\xdc\xbe\xc4\x10\xaa\xb5\x93rX\x87I\xa0]\x99&vA\xba\xa7\x05h\x8b\xe9\\\x90;\xdf\xf1T\xb3\xb8@\t\x9e\xa4\x16\x07\xdb\xaa8\xa0oLQom\xb9\x93\xc2,w\x1dt\xc8\x95\xe3A\xc9z\xbcA\xf5o\x1c0\xc3\xa1R\xed\x05\xd9\x8a\xbb<e9\xd4\x89\xdc\xef\xb9\xba&W\x84\xa9:\x0eAM\xa5\xe8GAq\x85$\xf4\xaf\xe5\xf2\xab\xab\xba\xba \xca\xaa\n\x94+\x8d&&AM\xd5;\x02`v\xac\x9b\x85\x8c\x07\tp\xe1m{\x14\x14\x83\xf0\xcb\xfaQ\xbf0\x8d+\xcf\x02t}\xaa\xfdS\xefP%N \xa4q{\x84\xf5\x8a#\xf1$Y\n\xaa*\x166Z\x16P:\x81\x12e\x02\x9a\xbfX~o\x86\x10^ *\xc72\x9e\xe6:YK\xef\xd1\xb9E\')\r5\x90\x86\x9e\'\xea#\xd6v\xd6\xdd1Bc8\x08\xf2\xa2\x9a\xd2K\xe2\x02\x89\xaf\\\xae\x0cKb\xd7\x1e\xaaY\x80\x1fP}\x1c8\x8dc\xcc)V\n!g\x15\xd7o\xf5\xfc\xb6\x84\x1e2\xfd8\xb3\xee\xee\xdel\xddKTP*UQ\x12t\xe0.\xe6nD\x03\xc0\xad\xdb\xcf\xb3\xde;\x9cZ\xcb~\xc7\x14\n(\xab\x9d[?I\xa1\x14\xd2D\xc7\x9e\xaf\xf5\xed\xad\xc6\x11\x94\x8440\xcc\xc1\tG\xa9_\xceB\x84\xfc\rq\x02WaJ\xda?\xe26>Hq\x83\xe4\x0b\xd7&\x90\x15\xaa]\x89@Fa\x85\x80LI"\x9f\x92\xd0K9\xa1\x8f-\xa9\xa9rcD;5 \xd1\xab:\xe5\\\x19\xdc\xd7\xf2*j\xe8X?r\x8b\xf74\xec\x11\xe3\xb3\x94s\x8d\x92\xfa\x87O\xe5\xc8=z\x05\xc4\xd0\xc89t\xcb-q\xac\xfb|{\xd1\x1aB`\x8a\xa5HNb\x11\x80v\xaeK:{\xe8N%\x83\xd4x\xd46a\x10\xfe\x1d7s\xc2\xcb\xe8]\xf5EI)Q^X\xda^O\xcf\x88rm\x9b~\x9f\xde*\xe5|\xaa~\xfe\xda\xbd\xd2\xbc8]\xb1H-(-bM\x9a\xda\x07\x04[\x97\x9f\x94\x80\xe6Q\x86?\x86=\x04\x85\x07\xc2\xf2\xa2\x99Pq\xb6\xf2;\xb9\xf9k\x97\x066\x8a//\x91.\x87#?\xc4\xc3\xbap\xe5<\xb3K\x04\t\xe4\xa6\xeeR\x0f\x9dt%\xd2r\x16\x149\x01p$-[\x83\xc2>/\xc2!*\xccVG\xd4\xe1\xc1\xea\xb8\x9b\xc9\xca\xc2\x9fl\x15R\x0c\xa5\x8e\xd3\xad\x91\xa47T\x91\xe5Y7(\xd3\x9a\xaa\x84\xd8\xbfy\x8c\xe1W\x88\t\xfcn\xfbQ\xf46\xf3c\xd4\x08\xc6\nz\xc9\xf0\xd7\xd4sR\x05z\x1f\xc4\xfcl\x06\xf65T\xbb\x9cl\x87\x03\x01.\r\x0c\x91\xda\xbe\xe6\xd8C\xa1,\x87\xd3\xd7$7>iqNCLc\x13\x1d\xfa\x84\xf0\xaaJV\xbcU\xb87\xde\xb62\xa3j\xc9\x7f\x0f\x04\x98\x87\xe1W\xba\xa1\x06\xbc%"L6\xfb\xfb}\x81]o\xe6\x87\\\x84y\x8d\xbd\x9c\xbar\xee\xf1@\xc5\xd5n6%\x95\x04z|\x9d[o\xc8\x98XP&\xc5m\xb5\x8c\xad\x98\x8dC\xe7\xed\x18\xf1\xf2\xe1\t8\xa9\x80\xc0D\x8a\x0fD\x90\x14k\xe0_\xc3;r\xce\x9en\xca\xfa\xba\xa6\xb6\x97v/\x02m\xcd\x05`\x84\x0cP\xed\x07P%\xf5>@\xcb\xa13BT\x95\xe2\xb7\xb0\xa9H%(LcK\x01@\x84\x9e\x0c-\xfb\xb51\xc35\xdc\x87b-\xfc\x081\x168\x07aP\xabgK\r\xeb$ \x92\xaa\x91\x9c\xcdE\xcf\xef\n\'O\\\xe2\xb6\xd4ui\x9f\xc7\xa3\xc4\x90\xff$=r\xd0\x81\xadQ\xbdW\xa54\x8a\xeb\xce\x9a\x82+k\x9cnPg\x8dSr\xd1N#>\x0f\xc4b\xa9\x80H\xe2\xfb \xec\x80\r9\xeb\xa2\xa3\xcc\xb2I7\xf5\x1c\r\xee\xa1\xf5z\x94X\x94\x96%I\x1a\xe1\x92[\xccQf4\xa7L\x0c\xb7B{u\xb14ZA\x1f\x86\x8fd\xa9\xe4\xea]Z\xac\x0e\x0b\xcb\xae\t>\xc4\xb0\xcd\x1dN\xd8\x0517\xc5\x80\xa8u$fJ\xec:\x05\x01\xb5\x8dT\xe3\xa9\x13v\xd2\xab\xa2\xa5\na\xbc-\x97\x9a\xb3\x17\x8b|\x03\x90\xcc\xec\x02s\x87u\xc9l\xcb\x10#8=\x8c\x9a\x05\xf4z\xd8n\xbc\x97\x94\x1b\xe2\xacL\xb0\x82C\xa9R\xafo\xd8\xeaU\xc7sh\r@1-\x96L\x17_l\x11\xef\x8eu\xd824\xf5\n\xf6\x1b\x11\xea#\nb\xfd\xaa\xae\x96\x8c\xd8\xba1\x14T\xe1\xd0>\xd9>kdjE\xabR`\xec\x12\x81\t\x94T\x8f}s\xb8\x7f\xf6\xbaN*\x11\xeb\xea\xa3\xf5\x14\x89\x89\xeb\xbc\xc3\x19Ld\x95f5y\x93\xc3Q\xebq@\x84:\x9a\x88\x9e\xd6\xe6\xd5\x1e_\x84\xdd\xa3g^\xc2\x0b\x92\xf5eMf\xb6\x06\xa8?c\x08\xfc\x8d\x80\xf5\xd8\xfc\xc6\xbf4U\x19X\xa0\xf8#g\xd8\xf2kRsfw\x80\xfba\xda#-\xbd\x1a\xbf\xb9C\xaa(\x1d\xa9\x94\xac\xac\x00\xe2|\xb66\xb5\xc2T\xe9t\xa7\xc2\xf5J\x18\x90^\xd1\xb8%4\xc6>HL)\x8a\x84\'?\x8f-\xd9d#\xfa4F5"a\x8c2\xd9%\xa5\x12\xa0\xa7e,\xca\xa5\xca\xe91w\x1fQ>\xe9\xc8\x96\xdch0\xb5\x00\xe4\x1e\xcc^\xa5z\xcc\x9e\xac\x03\xcc<8I\xcf\x9c\xe1\x12\xc4\xcb\xaf\xeb\xe5E\xfb\nj\x82\x12!\xe4\xa2\xa7GZ\x85 \x15\xba\xf0\xd6\xd5FdZ\xac\x8d\xdf\xc0_\x00a%\xa1E\'\xa5\xa4\xc4d3n\xf4\x95A0\xaap\x96\xf6Kb\xc8\xf0\x13c\xe8+\xef=g\xd8\xf41\x06\xdb97\xe8o\xf7\\\x89\xbdu\xa4=\x97$3\xe3\xae,\'\x10\xb6\x17%\xad0\x0f\xbe\xdcM\xfb\n\xbc\xc9\xf0\xb6\xfac\x851\x99\x89\xc4(\x82\x13\x15\xa5s\xc7\x06\x19\x82\x92zyyq\x83\xb2\x0e\x95\x01\xa8\x96\x9c\x1b\xd1\xba\xd7\x02F7\xcf\xc7;j\xc0$\xc8\x0f1\xb8Z}_b\x8d}.E\x14x\x1b\xd2\xd2\xea\xb9\xcc\xdaF\xb2q\x8d\xc9X\x0f6\xd8\xb3\xa5\xce$\xa8k\x81\x1d\xed9\xc3\x12^+x.\xde\xb7\xddY\x066\xae\x15<\xc4\xd7CCw\x00\x85\x93\n#K,\x7f\x11(-\'\x1e\xfd\xcd\xaa"\xef\xf7\xe7\x88\x10\xb2\xe2\x84\xd0\xbe?P\xb7\xca\x88BS+\xfb\xa1\xfe\x16B\xa5\xb9\xb9\xdd(\xa8s\x83A\x83\xe1\\\xc0\x08*\xb3\x13++x};\xd8\xde;\xb67\xd7\xfcuX\xa3\xc6\x80n\xb3\x11\x95M\xd1\xfb\xf0\xdbm\xb9R+\xc4\xed\x1a]\xfb\x14\xb5N\x8a\x8a\xca\xf9\x132b\xc8n\x91q\x19\x94\xa0\x06e7ZQ\x80\x01\xa4\x9e\x9c\x7f\xefC\n\x94@\'\xbdu\xe2U\x14\xcd\x08\x99\xa8\x07\x86\x9a?*f\x13\x94\xd4\x05\x90\xd2DPR\x83\x92\xd5\x84\xc8P\x83\x10Y$%4d\x9anzLB\xc7\x03,9\xab\xc0Q\xf9(\x9aZL\xdc\xab\xe6*\xf11\x95@\xd4\xack\x89E\xf5\xdb\x88\xfe\xdbC>J\x9fw\xdc\x94C\x97\x1b\xd5\xba\x80 +D)1\x87%\x83\xa1\xbcu\xaf\xa0\x1f\xdb\x96\x0b=1\xe3\x8d\xaecJ\x15\xb2\xd2+*\x91\xa9\'h\xa1\xae\xc64u\t\x031\x12\x03P%\xf3\xcc\xba-\x18r\x81\x92C\xec\x07\x8d\xd5#\xf9P\x108\x1c\xa2\x08%F^F\xe6\xdd\x06Z3z\xe3\x9c\xb8$\xa7\x03\xd4K\xc3A\xbf*\x1a\xe0S\xb3\xfaV\x89%\x80\x08\x0c\xe0CY\x15\x1d!e\xeesC\n\x82\xe8\xd1U}\x81\rd!+\x1d\x88\xad=\xa4\x95\xb0\x02\x9c \x81\x11\xec\xab\xaaFm\x15[N\xd0=\xf1MJ\xcey\xf7\x98\x9c\x82\xf6\x96o\xf5\xa5\x84\xf0\xee\x9eU\xefp\x0f\xd9\x17EG\xadA\x9b4\x11\xf9E\xcb\xae\xc4b\x03P]\xb5\x9e\xc0:\xc2\x05H.\xa0\xa8^\xda*\x86\x9b*\xb34\xa8\xd5\xb98\x12>\x19P\xcb\xf4Sa\xd0$\x8f-\xa4uP\x06\xe2vB\x80\xe7\x10\x88\xceII$\xac\xf8x\xc4x\x07\n\x8dF\x06\xbf>\x05\xce\xc4K\x1b\x08\xdf\xf8 5O-\xe7\xc4v\xe7\xd8\xfe\xaced5\x87\xf9(c\x0e%\xd9\x17\x1d\x7f\xb3\xb1\xc6\x87\xf2`\x88\xe6\x1c\xca@\x7f7\xba\xfe1\xd1-\x0f\xd4\rxH\x9dv\xbd\\\xea5\x0c\xeb~\x8bj(5%\xec+\xc0m&Z\x0f\x18\xc2#UY\x9d\x12\xe5S\x12\xce\x17+}\xbc\xd2n\xe5\x16\xc9\x94F6-\x95JK\x9c#@\xe0R\xb2\x90\x95\xfa\xfc\'\xb8*0\xd9\xa9\x98ZyN\x8c(T\xf6\x00\x95\xcdZ7N\xf4\xa1\x12\r\xa9\xff\x81*=\xfdo\xd4\x11j\x1f\xac\xbaR\xe0\x9b2Ur\xf7$\xa8\'\xe8\xa7H}\xf4\x07K0z\xddDX \x90\x1a\x98f\x08\xd6\xe5\xf8\x88\x89b\xb0\xd6\xf0\xb6\xa4\x8cW:qx\rQ#\xe5\xa4\x01S%\x02\xa4_S\x9e\xcbA\xec\xe9\x83\x99\\\x8a\xe5\xd0x\xb1\xc4<\xd0]\x00\x11f\xb1\xc2!\x86\xe56\xd8/\x04\xc8\x00A\xe5E`0\xe6\xb6?\xf2?\xb2j\x14\x1eqw\xfd\x8d\x8c\xa0\x92+\xc6\xb5\xd7\x90\xdf\xbb5I9\x11\xf2|\\\xf9\x14\x8d\x83P1\xc3D\xa3\x98\xe1\xd7$V\xde\x94\xc5\xd1)\x12\xc5|U\x9d\xdc<\xd3vJ\x9a[b\xdf\x06\x17\xab4\x89\xaaj\x88\x9e\xca\xdb\xe5\xae\xdc\xdbx\xd1\xc6\x95\xc4\x913\xf6\xf9\xfd\x10\xef\x03\xc5AzS\xc1\xc1g\x9c\xb9\xbd\xdd[\xf5M\xbf\x87\xfcC\xebb\xd9$\x9cgN\x05~oJ+,I\x98\xda\xf6\xd1\x83-\xe7\x8a\xa1*TL\xf6^\xea\x8e\xcd^~`\xfc\xd5\xd4qU\x94\x85j4u"\x99\xb8\xa2\xd8\x13\xf2N\xa6 \xd2\xd7\xd62\x89\xad\x05\xc2\xe6\xe5\xb6\xd5\xba\xf1;\xd3\xfa\xd7\x9e\xbf\xce\xeb_g\xfe\xfa\xd0\xbf\xae\x9fX\xf5%\xf0/Rv\xb2\xfb\x1cj/\t\x85d\xf0\xcc_\x87i\x94\xf0\x1a]\ta\x94\x94\x15\x88\x1f\xf5:\xdf\x84\xfcq\xc6k\x81\x94\xd4\x8c\x16#\xd9\x88\x02\xe6\xca\xaep(9\xd3\xda\xd4\xf8N\xf3\xea\xb0\xfaT\x13J\xd2\x11\x97\x88\xa9\x85\x9c\xeap\xf5\xadA=&\x15\x0bM\xd4\xe1dc\xe0q\xf5\xb6\'\xc9\x11\xe0\xd6,\xd2\x01\xb5\x8c\xb5\x83\r\x157I*\x81\xb7(\xd5y\xaa9\xdc\x16mz!g\xab~"\xdeD\xf08\xd0h\xc4\x98\x10^6~\xac\x17\xaf\x06XN`@\xa8.z[\xf9\x03\xccO\xa6\xba8HY\xc4\r\x84\xce\x12\xe7e(\xe7\xe4\n[9\xe7\xbc\xbfs^\x8e\xddXio4\xea^\x0b\xa2\x98\x8d\x05H\xe3\xb5\xa84l4sc\rW\xb9\xb7j\xb1\x165\x06*\xb0\xb2\n\xd1}r)B\xebs\x06\xa3\xbf(\xdb\xa8\x11l\x89\x10$u\x85\x1a\xd3\xf7\\D\x92\x98W\x91?%\x02\t\xbdp\x82\xe6\r\x18-\xa1R\x88\xfeC\x14\xa7v\xaa\xe5D\xf9Z\xbbC`r\xc25L\xb5\x96b\r\xb2\xfa\xba\xa9\xfbs\x89h\xc1\x13\xbcgqK\xa9\x86\xfd\xff\xa79\xa3T\x04%E\x07"H\xfd\xfbO\x02\r\x89Jzbk\x15)\x95\x18\xe4[z\x92\x95\xbc\xf2d\x01_S*\xa9\xe2\x94\t\x16\x82\xeb\xa6\x18<z\xde\x97\xc1\x90Y\xf1f\x9a\xad\xa9\xe6\n\xd6?\xb0(\x1bb\xc6\xca\xca\xf8\xbe\x99\x84tC\x07u\xeb-\x12\x0e\x92\x0c\xe5\x1c\xe4\xcer\xd9\x8e\xd6\xb0/Q\x01\x08\xf7\x07B\x9fu\x1a\x95s`S\xf5\n4\xc41\xe8|&P"f\x95\xc0\x12\xf6<$W\x9c\'i=\x02\xb7\x98d\xd1\xc3I~66^\\\xc9\x81\x129\xd5Y`\x85\xc3\x99\xa0C.\xc1W\x8e\xd6+\xd0C6&v\x89\xf2\xd6xIQ\xaa\xcf\xf66,\x1eO\xa9,[\x01U\xc6\x17L\x8bx\x96\xfdR\xa9\xe0H\xab9.\xa1\x9a[\xc10\xccy\xdf*l+\xa9\xc6J\xa8MV\xdd\xc9\xef\x16\xda6U\n*\xb6\x1d\x1c \x85\x86p\xec\xcb\x94`\x0e\xfb\xe1\xb5\xbe\xafu\x08\xf2 \x8b\xc9\x85lTe\xe1\xb92\xad\x1d\xa4J\xcd\x83\x9dU\x80\x1c\xc8&\xff\xd6\x93\x86V\xba\xba%\xc9\'{\xb1\xb0\xac\x14\xe1%G\xc01\xec7\xec\xfc\xca\xf0\xe1A8\x02S\x16\xbf\x8d\xffe\x8dxi4tLj\\\x9c\xd4\xcf\xb3\xd3\x81\x07\x84\xb1\xfd\x0f\x0f\xaf\xaeT\xc0\xa8\xdd\x04D\xaf[\xb6 K\x92\xb2\xf6\xd0V7km\xab\x88\x19~\x01\xc3\xc5:liTK\x15\x08M_\x1c?\xd7yT\xc7\xab\x12YY\xb5\xb9a\xb0l\x11| \xa6\x94\x835\xdd"\xfe\x13\x8b\xa9\x18\xa8\xd4\xb0?\xe4C\xe6\xf4\xc9sD\x8c3\xb1\x92$\x08\xca\x01?\xf2G\x9d\xde1\xeb\xf8\xaf\xc7ti\xe80H0T*\x86\xf6\xea\xa1\x9cu\x1bb~ \xf3\xe3\x87b\xa2\x12\x89)\xe7\x88/\xc8\x9a\xaa\xb2\xd2\xf5\xe2\xdb\xb3\xe17F\x8c9\x95\x12\x91|\x01n0k-\xa9\xbfX"\xe9\xcf\x9cd\n\x98\xcc`\x93\xf1\x92+\xe7=\x0e\xd0\xbb\xf2\xecS"\xd0\x85\xdbdI\xf1\x9a\xf90\xe6\xdaz\xaeG\xef_d\xdd=r\xd6\x86#8]\xbc%\x12\xd3\x0f\x19\xa6\xe4\xb0Zm\xe4\x95\xe7\xf7\x96\xbf\x98\xba \xad>\xe0\x7f\x97$\xfd\x9dY%\x9c\xcb\xe1F\x7f&}\xf8vg\xcfK\xdcX\x06~\x91L%\x0cLcG\xac\x83\xfe7[<E\x82\xd2\xcd\x96W\xea\xdd\x94\xf0>\x94XuN\xa9no\x04E\xf2\xbdS\x91\xff!\x10z8\t\x10"\x1f\x15\xa7\x8d%\xa6\xe5 \x9b@-\xb5\x8a\x10\xb6)\xc7\xfd\x8bJ\xaf\x87\x12I\xe0L\xc3KZ\xd6\xb6\xbc\xc3\x90\xe8w\xdf\xae\x90\xc5Q}\xd8\xff\x83n\xe7\x80\xb0\xd8\x8e\xf2DV\x19\xcb\x9e\xd6U\xf7\x1f\x14\xdf*\xb2Hw\xe3\x91\xd6\x96\x95\xc5\xed9a$\x16\xda\xde \xab\xe4\xb8W\x85\xe9\xa5\x87\xb6A9\xe1\xe3\x95FN\x1b\xe0\x8b\xff\xf1t"\x04~\xcb@\xea>l\x91\xd4v\xb9\xb7_{0\xf3\xb3N,\x82-U\x9a\xb3\xef\xc9\xacz$\x01\x108\x8a\x91\xec\xff,\xd17\x0cR\xcf\xf4\x1f\xc8s&\x16\xa2\x96\xef\xcd\xf0\xac\x12WH\xc8\x86\x8b\xd1\x1bF\x1d>f<\xb0\x19\xe4\xe4\' \xbb\xda\r6n\xdd=\xbf\xfeE\xddA\xbd\xf8m\x1f\x849\x90\xbc\x0f\xc5IW*\x82\r \xc8\xf3A\x1e\xab\xe19\xd1EOI\xdd\xe6\xeeAz\xdc\x8b\xd4\x82\x87xR\xdf\x134B\x1a\xb0\xb8\xa9#\x8c\x049\x9dN\x8erI$\xee\x1f\xc4\xe4\x03\xe2\x05\x05\x98\x1c\x1c\xa9\xba\x94\xb9\xa5#\xcc\xa0s\xa3|\xe5\x88\xa2\x8d\x9ew\xe3\x01\xd7J\xed8+u)dK\xa8:rL\x94\xd6o-n\x9es7\x18`\xc0\xa1\xbaS\xdd%\xb8<\xac\x80\xd8I\xd1\xe8\xe8\xa1\t\xba\xf5n\x0c\x0b \x87\x0f\r\x94\x97Ao\xa2\xab\xde\x13b\xe8\x8e\xc1\xcb\xf5\x95\xadB\xe8T\xac8\x1d<\xe2\xad5\xab\xa1\xb4\x11@\x87\xb8^\xce\xbd\x1c\xf1qhe\xdf\x93aQ\x16:\xc6\xb70$\x17I6\xb4\xb9\xafe\x8a\xb7\x88\xa8\x06\xb4\xb5Dm\xd4\x9b\x99R"LB> \x05\x9d}\xf5\x0f\x14s\x83\xcdd\xe7\x81\n\xbdB\x06\xe1_\xf1\x8c7e\xd9\xb0\x99U\xc5\x93\xc3\x1cb\xdcI!\x86\xae\x007\x00C\xd9\x9a\xc0Oa\xaf\x9e0 r\xf2\x17\x136\xfb\x16\xc3I\xf7\xdc!g\xe7\xda\xb6+E\xe2AQ\x9d\xe5P_?\xd5\xf7\x08BWU\xd5\xde;:`\xb9\x1c\x1f\xae\xfb\x1c\xc3N\xa6z\x81F\t\xba7\xd9,\x9d\xebb\xa8\xc4J!=\xf2{\xc7\x01\xba\xd0W\xb6\x97<\xb4X\xf0\xea\xc2y\x95\x87\xa7T\x89\x13\x83\x01\xa7\xf5l\x0fZe\xe9,<]\xd1\x18v\x86\xe7\x1fr\x93\xeb,\xcd:\xe8 \xd4\xbc2\x86\xcbB4\xb5\xacb\x94\xb1\xc2(\xeb\xcd\xf9\x9e\xcb\xa9\x07\xa8\xbc\xde\xe3\xec\x81\xbb\x01\x1c?\xcb\x85\xab\xb8=g\x8dMx\x8d1\xe1j\xf6B3\xec\xfe\x04\xdd1@\x1d\xafD\xa7\xablZ%v\xf9E\x0f`7|\x89\xeaO\t\xbb_U \x13\x0f\xa0\xb0k\r4d\xc9\xf2\t\xe4\x12\x8a\x96Ci\xe8\xd9s\xe9\xb2jd\xdf%m\x9cP*\x87\xdd\xf7-\xb4a*\x91\x01K\xb5\x83:.\x99\xa7\xee/\x16w\x8fZ3\xcc\xfb\x80}\x97\x1c\xb9\x9cw\x07\x19\xc5\xaf\xb0(\x0e\x02\xf5ngxU\x9a\xfd\x88\x01\xfc\x94\x19\xb1{\xe3\x86\x11\xbb,\xde?i\xb5Z\xde\x9e+$\xa7KMxy\x14\xe3\x85y\xa1:F>R\\\x0f\xb6\xa4\xb9\xaa\xa0\x9c\x0b\x10\\\x19\x1b\xde\x8d\xd7\x02\x97D\x12`\xff\x06\xac\x0c\xa6?8H\xc1n{\x95\x1c\x9f\xd0\x1d\\\xff\x00\xea\x15\x03\xe4\x8c\\\xe0\x08\xeeDK\x80\xde\x03\xe4\xeb\xa5\xad\x91\xfemIc\xef\xc9\xb9K\xdb\xa8\x87\x91\x95\x8c\xc2\xef3\xab\x8e\xfe\x87\xad|L\x9fR\x80/\x1f\xe4\x19Y\x0f\xb8\xd7c\x13\xe9\x81\xee@\xa8\xf6\x84\xea\xec\x8d\xdaW\x17#\xda*c0\xe0\x04\x95\xbeW\xf7\x05!\x06HC\xce\x018\x0b\xe3\xc5j+\xab\xa5\x83\xa2\xe6g\xcao\x11\x9av\x94\xc2)\xc7r\xe0<93p\x9e\xc4\x19HL[i\x83[\x92\xe6e.\xad\x11g\xb8!tT\x11h\xe57\xa3\x17\xe6\xad\xb3ke\x02#\xc1\xa3b\x97\x12\x1dL\xe3UW\xadh\x89\xda\x19\xa1\xca\x92\x94E\xe2\x87]*\xe3\x12\xe21\x05\xf8N\\JB|A\x9d\xa1\x8e\x19\x83\x80\x82g\x8f=~I\x9d\x80\xc85p\x9eC\xd9\xe3\x85\xb0\x85t(\x01<\x16\x1bB!+0%\x02H%j%2\xb8`%n\x17\x97\xab\xd5H\xb3@\x9eB\xf6a\xce8\x14U&)K\xcd\x85\xc2\xa5\x08\n\x8c1\xea\xae&\x17}\x93\x8a\xbc\x1b\x07\xa9>^\x1e\x8b:g\x97\x15"*\x07\xc9U@\xa2\xa9Jl\x0e\x94\x956C\x8c\xa3\xd5\xd5\xa4q\xc4l:(g\x04\x85\xf6\xb9\x84\xd7\xf3\x9d\xeb\x80\xa6\x18$\xb7\xc2\x99Ry\xdf\xf7\xda\x83\x1a\x04sl\x80K\x92a\x98-n\xbcNA\xab\xae\x85\xe7\x98p\xc3g\x85Md5@\xc7\xc4\xb0\xa9l\xaa\x97\xaa\xe1\xda\x12\x1f\x08\xb1\x12\xc3\xc6\xf4\xa6y\xeb\xb5\xc5)!\xd3\xf7>\x0b\xae\xac\xeb\xd2\x01c\x1f\xc1\xc7S\rF\xf1qz\\\xa1\xc6\x8e\x03\x91[x\x9e\xee\x8a\n\xedf\xe3u\x02S\x1a\xaa\x9c\xd6t\xce\x1d\xc9\xec\x7f\x8b\xaes\xe2\xd4c\x8f\x90\xe7TV\x97\x1a\xb5V.\x16\x8f8\x93V\x02\x08d\x8d\xbe\x8a\x04F\xe5- U\x98\xc5\x94g\x91\xe3Q]\x88\x1a\x8e\xe6\xec\xec\x85\xa4y\xa6\x88\\\xb9\x96+\xdf\x0f\xb5r\xd6\xcb\x06\xf4D9\tw\x02\xac:\xaa\xabR\xeb-\xe1\\\xc8t\xaa\xf0/S\xdc\x1c\x0cQW\x99\xecg\x12\x87\x92\x07\x02\xe0\xa1\x98\xac\xed{\x9dyN\x14!t\n\r\xb32\xec\xe2\xfd\'X\xe0\x1c\x0bf\xef\xdf\xf6x%\x13L\x9c\xa3s\xcb\x8ds\xec\x13(\x13\xe5\xa2\xb1\x82Y\x97\xae\x8a\x9dR\x05\xf6\xae\xf8T\xa3\x11Vn\x01\x8b\xc2%\x88-)\x97\xeat\xa69\xc5\x95\x80\x16\xe1:\xa9\xd1Xe\xb5:\x80\x19R\x8e\x08\x9f\xf5\x9a\x9e\xebP\xf2\xaf\x90\'\xf7}\xd7\x13|z\x10\t\xf6`\r\x13\xce^\x16\xeaP\x98\xb7\xe2\x97G\x85\xb5\xb9\xe5Wh\xca\x1f\xe3B%C\xb8\x04\\\xb4\xcb\x92U\xb1\x07\xdeF\x89\xe8\xf6\xac\x8d\xde\xa1\x92\xec\x96\x96\x00\xdb`\xef\x951d\xfe\x19\x93\xa0\x94m\r\xe1R\xabTq\xa2\xe5(\xb9\xb9`\xe78\x1c\x19o9k\xe3\x97\xf0@\xd5\xd6\x04\xee\xc7\xf4\xeb\xad\xc2\xd6\x14q]H\x1c(\x93Q*W\x92\x9fh\xf9\x98\x07\xfbV\x91\xd7c\xeb\xb1Z\x8f^M\xc4\xbb\xc8N}&T\x02\xa0\xbe]:PJX\x13\xcb\xc8\x94\x03N\x80eJH\xe8\x05bx\xbc{_b\x13(\xc5\xf3\x84dcV\xdc\x055\xcaj\xa4tY/\x96\tL\'\xaf\xc4]H\xd2r\xd5\xc6|\n\xb9b\x98\xfeW^\x82\x97\xc2\xad\x1c\x91\x90\xd7x"\x15\xcb\x15:\xec\x99\x8c*`Zm\x9fr\xf2P\x85\xae\x030\x12\xb5\x90\x08Z!\x05I$o%\x06\x86=L\xd2\x08\xc8\xa9\xcd!z\xe0\xa6\xacI\x89\xfd\xba\xd4\xe6\xbc/\x11}7\xae\xfddO\xbc\xb9/W\x1a\xbb\x98\xaa\xbc\xc6K\x83\xfd\xf3\x19\xdb\xab$KZ\xfa\xe1\x18\xfc|\xb0_\x13\x85\x9f~-KX\xe9\xcb\x95aT\x0f\x97\xd9\x1dn\x97\x87\x13\x8e\xe4\xd0\xdb\xe9\x85\xde^\x86W\t*\xed\x90b\x0e.\x13~\xcf{\x1b\x86\xc7\xa9\x1b-Xji\xaa\x94fM\x9a\xc8\xc0+\x93\x8d\x87\xbf\xa7\x19\xf6l\xc6T^a5\x95\xec\xd1z\xf7Y\xbb\xa6$\xe6\xa1\x8aeV\x9f\x92\x12\xdf6\x11\xb1%\xf0\xdb6\xf9{\xea\xa2\xcaL=\x95\xe9%\xad\x9c\xadWEE\xe7\xe9A\xe5\xf5\xf9\xfd\\\xc9\x9c\x1e\xaa\x90NZ\xa9\x8d\x12\x1bI\xe8\xaa\xd4\xc0\t/$\xc5\xbd\x94 \x0c8\xd5\'\xb9\x0b\xaf\xf2YV 7\x01\xc8g\x19\xa3#Q\x0b\x8d\x121:\xf5P\x8f%-\x9a$\xc9\xa3\x18U\x95\x03r\xed\xa8:g\xa7\xd5I\xa5G\xb8\xd8\xaa\x0fKo*d\x95\xa6Z\xc54\xde\x17\xb6B\xeda\xd4x\xab\x86\x1e\\\xf6\x1f\xec{\xc4!\xc4\x98Am\xfe$\x1b\xb8\x9a\x02a\'\xe4\xb1\xd9\x81\xa0+\xfa.\rI\xad\xaaB\x04\x8bi\xc7Me\xec\xef\xd9C\xb1n\x17\x08\xe9\x07\x14 \xfeq\xccih9\x1dms\xe4\x96\xd5\xb6\x02\xeb$PS"?\xacN0\\52k\xfa&y:\x88\xe2\xd4\x81Q\x8a\x1e\x1c\xaa\xf8\xd0Cz\xa7m\x15\x1e\xca\xc6\xabS\x00\x9b\xe6\xd7+T\x88*)\x0e\x0cf3\xc1\xfc\xdc\x1c\xa2\x1e\xb1\xdc\xfb\xfa\xf4\x11\xea+e\xe2\xa4Nx\x02S\\u1U{\r\x02@:^\x83\xf4-\x8bW\x83\x83\xb1\\b\xdc*\x00-\xe9M\x9f\x12\xb9\xbflq\x87W\xe5\x9b\xa1\xa9O#$\x192\xb9\xcayu\x8d\xb13\xe9\x9d/\xd2\x9b\xb5\x19|l\x82\xcd\xbak\xc7\x80\x8btAn\x8a\xd3r\x0c\xd3\x1c\x87\x92\xe8y \xd1\xa4\xfc\x015\xef"\x19\xf40U\xb5\xcb\xfbJ\xf4\xf9m;\xdb0\xa1\xb9\r@+\x07\x7fLA0E\x8e\x11\xa5b\x8d\\\xb2Nw\xaf\x8e3\xea\x03\'\x15\x80\x12E\xb9\xfe\'\xe4\x1f7|\xca\x9es\xa4O\x9e\x1c~\xf9g&,C\xff\xfe\xf4\x9f\x7f\xb0\x1f\xeb+\xbe\xd4\x031AU\x07\xe6R[\x8eFk\x03M\xe1\x01\xdcjR\x16-\x05\xe4\x91\xba\xf4\x02\xf5\xbd\xa4I\xb8N\xde\xf2G\x9b\x8e\xd2\xc9\x15H\x05$\xc2\x9aU`tR\xa6-\'h\x97\xbe\xb5GR\xa5\x8d\x17\xfb\x94+\x9e\xd4\xef|  *V\xe2(^\x10\x81(;X\xa2\xa4P\x18_\x8f\xc8\x8b\x1d\xe7`\xd9\xe3\xba \x87+&\x94y(P\xb7U\xcd\xf9\xaa_\xd8:\xab\x941\xd3\xa7\x8a\xefO:\xa0\x19?\xb1,\x8d{V\x1bZ\x96\x18\x0c\x1d^\x97\x02\x01\x1a\x06\x11+\x06#\xac\xdaAx\x08\xbd\xc5\xba!\x86?RkW*Tg8\xc4\x83:\xe8\x1bH\x08\x0f\x10U\x83\r\xc9\xfa\xc1VI\xde5\x89"\xce\x19\xb5?\x90\xaerB\x12\xd2\xe9\xfe\x96Ni\xea\x9e\xe3\xd8\xe3\x90\xd1L9\xd9\xe9\x91b\xeb]T\xac\xac\xdd,)\xae\xe0T\x83\x0c\x1e\xf8\xe4A\x95\xbd\xc82pRb]\x8a\xbd-_\xdb\xaa\xf0c\xfd\x7f\xf7E\x87\xe4S+\xb6\x01\xf6\x857q<\xc5\xac\xfc\x19s\x1a\xa1\xd0\xe4\xac\xf0\xbc\x0f\xe5\x1eJ\x12A\x92!\x19\xaa\xd7\x92,l\xf3RN\xae\x98^\xda\xbdQf;\x80\xc0\xdd$\x7f\x04\xeax\xb0\x0c\xad\xd8*\x8b\xdbE\xb1a\xa0$\x07\x90\x1e@\xe9\xa0\x03\xa3\xad\xebX\xa2.2\xb1\x19}uK\xde\xf5\xc0\xdc\x91\xbc\xd37O\xee\xbcRt\xad6:\xbe\x86\xcaRLIwZ\x8e\xc2\xe6\x0b\xe7\xc55K\x9c|Q&\x1f9&A\x80GJ\xd2\xa9\xba\xd0R\xdfW\'\xe5\x04\xe1\x15\x82\xebl<\xd9\xd1s\x9cx\x8c\xdc\xb2\xc3-\xbfn\x81\x08\x9f\x14m\x9a\x15\xfc\x03\xc9;\x0c\xb9\xa8\xd8\xea\x16\xd4\x12\xc6\xd4|\x1c\xb9s\x8b\xec\xf5\x04\x17_\xe8\xce\xd1-8K\xcf\tm\xe1\xca\xf7\xfc\xf5\xcd:\xa2\xf5\xf3s\x9d\xcc\xf6k\x03\xab\\\r\xf8X"\xf3<\xa7\x99z\xb3\xbb+b\x01\x8f.\xce\x1e\x93\x90\xde\x8e\xdb\x0f\x1c\x1as3\x1b\x8c\x00,\xa0@\xea\xe8\xab\x18\xa9\x7f!\xe7\xc6\x03\xa3\xf7-\xdd\xf5\x8b\x8dUMM\xa9~E\x01BM\x06pH<\xc0\xcai\xba,\x10:\xe9\x14.\x9bk\xe6#\xdc\x83\x8b\x8c\x15\xee\x07\x8fJ\xf2\x15\x8f\xaa\xc0\x80\x9bR\x0bL8\xb6,\xc0H\xa8\x84\xac\x94\x83<iI\xdc\xd2\x98N\xcb\x99\xa3\xd0m\xf8\xe2\xedv\xe3\xe8\x896\x18UO\x83\x1f\xaa\xc3k\x12!\x13\xbd\x19+\x93\xee\t\x85\x19\xa9\x8f\x06{\xe2\xb5\xbfY\t\xa3h\xaf?\x1b\xcf\xe6h\xc1\x16\x7f\xa4\xe7b9\x07\x12J\x1f\xe0)\xdc\xf0@\xab\x86\xae\xb6\xc5D#\xd6o\xda\x96\xc9\xd3Yb_|6\x95F\xe7\xc4^\x94x\x1e\x88\xe2\x93kw\x90\rY\x0f\x08\xbf(\xa1\xd7\x83W\xf2\x9fT\xd7\x0cX\xf9\x8b]Q\xe4\xd0\xa8S\xe4\x8b\x87l(\x86\x13$!0u18\xf9\x80i\xcb\xed\xbe\xcf\x1eP\x91\tS\xa8o\xe7\xf9\'\xc6.\xaa7b\x98\\\xf6\xfee\xfb\xd2H\xd8R\x8e\xed\x99}|*y\x85\xdf\x83\x94\x15\xa2q\x0c\xefr\x96\xf1\x15y\x13\xf1\xa9\xd0CV\xafz\xd9Y&@\xcf\xba\x96#\xaf\xc4\xd2\xa8\x82 \x97)\xbd\xa6r\x83\x99\x15C\xd6\xb6\x84\xdd\x9c\xca^"\xd8\xf2\xa6\xb4>\x1d\xbcY\xceDc\xd1\xd4Q\xe5\x95\xe2\x17xu,d\xab\xc2N\x11/ANv3h{8\x92Y\xfa\x95+\x15\xef\x11\r\n\x978\x04\xbb\x10~(\x08\x03V\xcbJ\xe0:\xd4\xd8\xb3D\x9c\x11\x8c\\\xe5\x15.\xf2\t\x07f_\xe5\x05xY\x85x\xa52\xaa\'\xaf0_d\xd6\x81\xc3\x9c\x0b\xef\x10\x16<]9\x1aY9\xbc\xcaD;U\xf7\xce>\xdeoQPK\x17\xab\xb5\xaa\xe4\x81\xa3LW\xda\xfa\xa8R\t\x08\x93xg\x83u\x16R\xe1\xeb[\x01\xe8\xf9\xb6u\x14\xae\xd9\x85j\x1a\x1b\x13\x85\xf4\xcd\x14\xf1\x9c\xe5\xbc\x19\xaa\x08\xcen\x10C\xf2\xb2\rdb=\xb02\xfa\xe7wZ!\xd2B\xbeR\x98\x81\x8f|\xf8\x9b%*\xa6H\x17\\\x14Oq%\xd4j\xd7\xc6\x1e\x0cf\x8a\xe9\xdd\x82\x99\xfa\xbaX\xf4Y\xa9\xe6\xe4\xeb\x19\xe2\xe0\xcb\xb7y\xe6\xef\xecCB\xb6v\xf3\x8a\xde\xaf#\xacfej\xcdD\x87\x94Z5\xb5\x1f\xf8\xebf\xd8\xa4\x19\xf8Q\xfb\xcb)i\xf5\x12\xa5\x02\x08u\x81\xfe\xc7aQ\xc2P~\xd6\x80\xa7\x1a9\xe9_\x7f\xb3\x81Fq\\\x0cOHT\x8cH\x05\x94IG\xdd\x8amP?\x1c\x18 T!\xb8\x06\\\xac\x92\xc1\x99\xfe\x92\x91:\xeb\xc9t&rU\x18\xd2x\x12S\x089\xdb\xaf\xa7\xa4\x15\xb0\x18\x0f\xf1\x0e\xe3\xb6\xdd\xc1\xb3\x18g,\xf1\xa1EQ\xcc\x17\xf0q\x08\xd4\x84\x9a^\xa6\xfd\xbd\x1d\x1an\xbf\xe0\xbeR\xdb%\xc6k&\xbd\xf2pH\x15\x9c1Z\xf2[\x91\x19\x1c,\x98~\xad\xa6\xbc\x0e\xd6:Z\x8b%-\x93\xdav^\xe1U\xcf\xde\xfc \xe7\xe7qw\x88\x86r\xa5\x8e_\xebC\x10k\x8d\xfd\x82\x9e\x87\xa0\x95\x99:\xd7\x14J1b\\\xe4\xa9\x95$\x17\n\xebdo\xd5\x94s\x97\xdb\xe7\xe9\xc5 \x83eUW\xb14\xb6\xb0i5\xcd\x85A!\xb2\xcd\xf8\xc1\xa7\xda\x08\xbbB\xcdW\x89(:w\x90\xcc\xe0\xcb,\xac\'}\xac\x0c@\xeb\x1c\xb57\x1c\xbc\x13\xcdMN\xb3\xb4*nl\xf7\x806g\x1d\x94S\xab}?dl\x9fr?\x9b\xdd\xf7\xc8\x88K\xee\x9an\xefPf\xbc\xa5\xfb\xb1>\x1a\xf6`\xefk\xc3}\x1d\xe0#\xcb\xf9\x07\n\xfc\xb0c\x1e\xd4e\xc5\xb6O!=<A0\xeb]\x0cel\xdf\x8c\x05\xdd\x9b_\xfd\xab\xbb\xfds\x18\xfb\xa1\xfb\xd7\x7f\xe6~\xfe\xd7gl\xf7\x98o\xcb\xff\x0c\xffs\xff\xf7\xbf\xff\xf5x\xfc\xf3\xa9\x92\xa4\x8f}Lw\x86<5\x7f\x99\xdf\xc4\xea1IL\x13\x9a\xcac\xd6\xde\x13\xb8\xcc\x1aF\xc9V \x11\x82@\x95\xbcK\r\xd9o\xfa\xdeG\xe6N\xf5>\xe1C\xb5\x01\x02\xf8\x92\xd6\x95\xd8\xa0\xf1eP\x7f\xa0\xd5D\xd6}\x0c\x12/^\x00\xccq\xeawb\xc6A\x9d[n\x18\x0c\x91\xa9X\x8c\\fI\xe3\xaf\xe4\xbb\xb7\x1e\xc9\xa1\xe3d\xed\xc6\xe3Z:\xeaRB\xf3\x9dI\xea[\xc9\x8aC\x9bo\x93tw%\x06\xd4T\xc7,\xd9\xc2\x8a+y-=\xd8\x8b\xcda\x18\xe0O\xd1&Rm\r\xc8\x82{ \x92\xdaP\xeb\x11Grfd\x0csMm\xaf>\r\xfb\x8c\x16\xaej\xe8L\x99\x1f\xcd[Sx\xce\xdd\x81LB\x93huY\xce\x14d*\x8b\xbd;\xf3$\xd5\xdd\x85c4\x89#\xf3\xf5\xcc]\xa6T`\xba:%\xc5j\xe9\x90- \xbe\x81K\xc3\xae\xd3v\xd1\x82\xb6\x15$\xab\xe6B\xfe\x93J\xae\x9a\xf0\xa8\xe4\xb0\x9fa\x9d\xa5#R\xca\xf2\xebuQC\'\xb1\x12\x9d\x88j\x18e!T%/\x88\x88\xa6z)\x11"J\x81\x89\x1d\x98\x13\x1a\x1a\x15\xee\rB\xb6\xb2I\xdc\x17\x9d\xd4Rc\xbb\x95\xe5\xc9\xd5\xf9`\xaf\xa4\xc8\xeeT\x913\xabM\xf8\xb5s0H\xc4\xcd\xa1\xd5\xbd*\x86\xa7\xd7\xfdW$\x9a\xdb\xb0H+\xa6$\xd4r2\xfeC\xeb^\xc3vw\xc1\xdc\x9bZ\x1ax\xe9\x82\x0b8\x84\xecn\xbe|\x8eXg\xcac\xc6De\xeby\xd5\x11\xf3\xa6nk\x9d\xea49\xf8\x9c\xc4;\xc7c(Q)\x8c1\x990\xaaS\xc4\x98w\xa5\xbc.\xd6\xdb\xcc\xe0\x16\xae\xde\xe2!\xdfz@\xa8k\x10i_\x12\xdcJZ\xf6\xa1\xc4\xb8\xd4s\x17\xb91\x00\x84i\xa0\xd03w>\xe84\xf4%\x85WJ\xbc\xe7\x1e\xf2p\xbdnjO\x12\xef\xb3\x04\xfa\xf9-\xb7F\r\xa7\x8c\x9cT\xdf\x1c\x197\xc0>2_F\x9d\xcfc!\xed\xd6\xd5\xd7r\xfar\xe3\x0f\t\x10/n\xb5\x18i=\xce+\xc5\x96g%\x823\xaf\xfd\x8a\x8bq@FW\x8f\x9c\xf3\xfa\xfa\x03/\x90\x88v\xa8\xbc\x03\x99\xdd\xdcg\x10;\t\xbcP\xd7tI\xe6\xf3\x08U\x8a\xa2uU\r\x1b\xf2Q\xd5Z\xd0\xaf\xb35\x9e\x8d\x84\xf7\xf6\xd6\xf7\xea\xf9\x1a\xfb\n\xb0\xe2\x8b{\xe9\xd5\xd3\xf4\x99\x18\xd0-;EK[T\x92\xd5\xf4p\xe4g\xef\x13-\x91v:\x16\n\\\x9c\x82L\xe3B]\x89\xd2/\xd0\xf4\x08\xdfuf\x10\x0cb\x91sS\xdd\xc4dOH\xe1\xe5\xbd:\xc1\x1b5\x97VL\x92\r0\xca\x9a\xc4k\x0f\x8f4q\xbdf\xb8\xbe\xaf\xe45\xf1A]\xe0\xd2vU\x9e\x95\xe8\x7fs\x03eU\x8c\xa0\xff\x96\xc7+\x89\x83\xcf\x99\xa9\x0e\xece\xb5\xb3N\xd8\xf0sB*1p\xab\x0f\x97W\xd7R\x0ck\xa1!\xa0*[\xf7\xf7\xcd\x82\xbaK\x11\xdd\xcb\x10\xa6\xa7\x1ax/\x0b\xb6c\x1a\x15\x92\xc9=\x0f3@}\xb8\x83\xb3\xc6\x9eJ\xf6\xfe\xae\xc32\x13,\x8cR\xb6\rwN\xeb\xfc\x80\xb4[\x16U_>\xb4!\xa3\n0\xd5\tAU:\xe3\x00\xfa\\\xa4\xcb\x9e\xd4\xd8\xab\xe2\x8e;\x16\xbd_t\xd2\'\x15\xee \xee\xc5\x06-\xadV\xfb\xf9\xf9\xf9\xff\x02\xcc\xb4\x12\x13'
p0
.