(idistribute
SampleDistribution
p0
(dp1
S'max_val'
p2
I196
sS'buckets'
p3
I196
sS'dist_table'
p4
(lp5
F0.0019
aF0.0032
aF0.006
aF0.0082
aF0.0176
aF0.029
aF0.0474
aF0.0697
aF0.104
aF0.1462
aF0.1916
aF0.2445
aF0.3037
aF0.3691
aF0.4353
aF0.501
aF0.5615
aF0.6104
aF0.6589
aF0.7
aF0.7325
aF0.76
aF0.7848
aF0.8053
aF0.8233
aF0.8412
aF0.8564
aF0.8664
aF0.8778
aF0.8853
aF0.8929
aF0.899
aF0.9073
aF0.9127
aF0.9174
aF0.9225
aF0.9259
aF0.9314
aF0.9351
aF0.9376
aF0.9412
aF0.9441
aF0.9474
aF0.9502
aF0.9533
aF0.9555
aF0.9579
aF0.9601
aF0.9627
aF0.9643
aF0.9666
aF0.9685
aF0.9704
aF0.9721
aF0.9746
aF0.9762
aF0.977
aF0.9788
aF0.9801
aF0.9816
aF0.9826
aF0.9833
aF0.9843
aF0.9859
aF0.9872
aF0.988
aF0.9893
aF0.99
aF0.991
aF0.9914
aF0.9923
aF0.9927
aF0.9933
aF0.994
aF0.9943
aF0.9945
aF0.9947
aF0.9953
aF0.996
aF0.9964
aF0.9965
aF0.9966
aF0.9967
aF0.9968
aF0.9969
aF0.997
aF0.9972
aF0.9975
aF0.9976
aF0.9977
aF0.9978
aF0.9978
aF0.9981
aF0.9982
aF0.9983
aF0.9985
aF0.9985
aF0.9986
aF0.9987
aF0.9988
aF0.9989
aF0.999
aF0.9991
aF0.9991
aF0.9992
aF0.9992
aF0.9992
aF0.9992
aF0.9995
aF0.9995
aF0.9995
aF0.9996
aF0.9996
aF0.9996
aF0.9996
aF0.9996
aF0.9996
aF0.9996
aF0.9996
aF0.9996
aF0.9996
aF0.9996
aF0.9996
aF0.9996
aF0.9996
aF0.9996
aF0.9996
aF0.9996
aF0.9996
aF0.9996
aF0.9996
aF0.9996
aF0.9996
aF0.9996
aF0.9996
aF0.9996
aF0.9996
aF0.9996
aF0.9996
aF0.9997
aF0.9997
aF0.9997
aF0.9997
aF0.9997
aF0.9997
aF0.9997
aF0.9997
aF0.9997
aF0.9997
aF0.9997
aF0.9997
aF0.9997
aF0.9998
aF0.9998
aF0.9998
aF0.9998
aF0.9998
aF0.9998
aF0.9998
aF0.9998
aF0.9998
aF0.9998
aF0.9998
aF0.9998
aF0.9998
aF0.9998
aF0.9998
aF0.9998
aF0.9998
aF0.9999
aF0.9999
aF0.9999
aF0.9999
aF0.9999
aF0.9999
aF0.9999
aF0.9999
aF0.9999
aF0.9999
aF0.9999
aF0.9999
aF0.9999
aF0.9999
aF0.9999
aF0.9999
aF0.9999
aF0.9999
aF0.9999
aF0.9999
aF0.9999
aF0.9999
aF0.9999
aF0.9999
aF0.9999
aF0.9999
aF1.0
asS'granularity'
p6
I1
sS'min_val'
p7
I0
sb.